
Arduino_template_v1.elf:     file format elf32-littlearm

Sections:
Idx Name          Size      VMA       LMA       File off  Algn
  0 .text         00002ffc  00002000  00002000  00002000  2**2
                  CONTENTS, ALLOC, LOAD, READONLY, CODE
  1 .data         000000a0  20000000  00004ffc  00010000  2**2
                  CONTENTS, ALLOC, LOAD, DATA
  2 .bss          00001328  200000a0  0000509c  000100a0  2**2
                  ALLOC
  3 .ARM.attributes 00000028  00000000  00000000  000100a0  2**0
                  CONTENTS, READONLY
  4 .comment      00000059  00000000  00000000  000100c8  2**0
                  CONTENTS, READONLY
  5 .debug_info   0005eef8  00000000  00000000  00010121  2**0
                  CONTENTS, READONLY, DEBUGGING
  6 .debug_abbrev 000069b1  00000000  00000000  0006f019  2**0
                  CONTENTS, READONLY, DEBUGGING
  7 .debug_loc    00007c96  00000000  00000000  000759ca  2**0
                  CONTENTS, READONLY, DEBUGGING
  8 .debug_aranges 00000988  00000000  00000000  0007d660  2**0
                  CONTENTS, READONLY, DEBUGGING
  9 .debug_ranges 00001450  00000000  00000000  0007dfe8  2**0
                  CONTENTS, READONLY, DEBUGGING
 10 .debug_macro  0001d4b2  00000000  00000000  0007f438  2**0
                  CONTENTS, READONLY, DEBUGGING
 11 .debug_line   0000ef1d  00000000  00000000  0009c8ea  2**0
                  CONTENTS, READONLY, DEBUGGING
 12 .debug_str    00083b5c  00000000  00000000  000ab807  2**0
                  CONTENTS, READONLY, DEBUGGING
 13 .debug_frame  00001910  00000000  00000000  0012f364  2**2
                  CONTENTS, READONLY, DEBUGGING

Disassembly of section .text:

00002000 <exception_table>:
    2000:	00 80 00 20 09 25 00 00 f1 24 00 00 f1 24 00 00     ... .%...$...$..
	...
    202c:	f1 24 00 00 00 00 00 00 00 00 00 00 f1 24 00 00     .$...........$..
    203c:	5d 25 00 00 f1 24 00 00 f1 24 00 00 f1 24 00 00     ]%...$...$...$..
    204c:	f1 24 00 00 f1 24 00 00 f1 24 00 00 f1 24 00 00     .$...$...$...$..
    205c:	f5 24 00 00 f1 24 00 00 f1 24 00 00 f1 24 00 00     .$...$...$...$..
    206c:	f1 24 00 00 f1 24 00 00 65 40 00 00 55 40 00 00     .$...$..e@..U@..
    207c:	f1 24 00 00 f1 24 00 00 f1 24 00 00 f1 24 00 00     .$...$...$...$..
    208c:	f1 24 00 00 00 00 00 00 f1 24 00 00 f1 24 00 00     .$.......$...$..
    209c:	f1 24 00 00 f1 24 00 00 f1 24 00 00 f1 24 00 00     .$...$...$...$..
    20ac:	f1 24 00 00 00 00 00 00                             .$......

000020b4 <__do_global_dtors_aux>:
    20b4:	b510      	push	{r4, lr}
    20b6:	4c06      	ldr	r4, [pc, #24]	; (20d0 <__do_global_dtors_aux+0x1c>)
    20b8:	7823      	ldrb	r3, [r4, #0]
    20ba:	2b00      	cmp	r3, #0
    20bc:	d107      	bne.n	20ce <__do_global_dtors_aux+0x1a>
    20be:	4b05      	ldr	r3, [pc, #20]	; (20d4 <__do_global_dtors_aux+0x20>)
    20c0:	2b00      	cmp	r3, #0
    20c2:	d002      	beq.n	20ca <__do_global_dtors_aux+0x16>
    20c4:	4804      	ldr	r0, [pc, #16]	; (20d8 <__do_global_dtors_aux+0x24>)
    20c6:	e000      	b.n	20ca <__do_global_dtors_aux+0x16>
    20c8:	bf00      	nop
    20ca:	2301      	movs	r3, #1
    20cc:	7023      	strb	r3, [r4, #0]
    20ce:	bd10      	pop	{r4, pc}
    20d0:	200000a0 	.word	0x200000a0
    20d4:	00000000 	.word	0x00000000
    20d8:	00004ff8 	.word	0x00004ff8

000020dc <frame_dummy>:
    20dc:	4b08      	ldr	r3, [pc, #32]	; (2100 <frame_dummy+0x24>)
    20de:	b510      	push	{r4, lr}
    20e0:	2b00      	cmp	r3, #0
    20e2:	d003      	beq.n	20ec <frame_dummy+0x10>
    20e4:	4907      	ldr	r1, [pc, #28]	; (2104 <frame_dummy+0x28>)
    20e6:	4808      	ldr	r0, [pc, #32]	; (2108 <frame_dummy+0x2c>)
    20e8:	e000      	b.n	20ec <frame_dummy+0x10>
    20ea:	bf00      	nop
    20ec:	4807      	ldr	r0, [pc, #28]	; (210c <frame_dummy+0x30>)
    20ee:	6803      	ldr	r3, [r0, #0]
    20f0:	2b00      	cmp	r3, #0
    20f2:	d100      	bne.n	20f6 <frame_dummy+0x1a>
    20f4:	bd10      	pop	{r4, pc}
    20f6:	4b06      	ldr	r3, [pc, #24]	; (2110 <frame_dummy+0x34>)
    20f8:	2b00      	cmp	r3, #0
    20fa:	d0fb      	beq.n	20f4 <frame_dummy+0x18>
    20fc:	4798      	blx	r3
    20fe:	e7f9      	b.n	20f4 <frame_dummy+0x18>
    2100:	00000000 	.word	0x00000000
    2104:	200000a4 	.word	0x200000a4
    2108:	00004ff8 	.word	0x00004ff8
    210c:	20000094 	.word	0x20000094
    2110:	00000000 	.word	0x00000000

00002114 <_ZN18PluggableUSBModule12getShortNameEPc>:
protected:
  virtual bool setup(USBSetup& setup) = 0;
  virtual int getInterface(uint8_t* interfaceCount) = 0;
  virtual int getDescriptor(USBSetup& setup) = 0;
  virtual void handleEndpoint(int /* ep */) { /* Do nothing */ }
  virtual uint8_t getShortName(char *name) { name[0] = 'A'+pluggedInterface; return 1; }
    2114:	7903      	ldrb	r3, [r0, #4]
    2116:	3341      	adds	r3, #65	; 0x41
    2118:	2001      	movs	r0, #1
    211a:	700b      	strb	r3, [r1, #0]
    211c:	4770      	bx	lr

0000211e <_ZN7CDCIso_5setupER8USBSetup>:
}

bool CDCIso_::setup(USBSetup& setup)
{
	return false;
}
    211e:	2000      	movs	r0, #0
    2120:	4770      	bx	lr

00002122 <_ZN7CDCIso_13getDescriptorER8USBSetup>:

int CDCIso_::getDescriptor(USBSetup& setup)
{
	return 0;
}
    2122:	2000      	movs	r0, #0
    2124:	4770      	bx	lr
	...

00002128 <_ZN7CDCIso_12getInterfaceEPh>:
{
    2128:	b5f0      	push	{r4, r5, r6, r7, lr}
	};
    212a:	2617      	movs	r6, #23
	interfaceNum[0] += 1;
    212c:	780b      	ldrb	r3, [r1, #0]
{
    212e:	b087      	sub	sp, #28
	interfaceNum[0] += 1;
    2130:	3301      	adds	r3, #1
    2132:	700b      	strb	r3, [r1, #0]
	epEPNum[0]=pluggedEndpoint;
    2134:	7947      	ldrb	r7, [r0, #5]
    2136:	4b1c      	ldr	r3, [pc, #112]	; (21a8 <_ZN7CDCIso_12getInterfaceEPh+0x80>)
	epEPNum[1]=pluggedEndpoint+1;
    2138:	1c7c      	adds	r4, r7, #1
	epEPNum[0]=pluggedEndpoint;
    213a:	54c7      	strb	r7, [r0, r3]
	epEPNum[1]=pluggedEndpoint+1;
    213c:	4b1b      	ldr	r3, [pc, #108]	; (21ac <_ZN7CDCIso_12getInterfaceEPh+0x84>)
    213e:	b2e4      	uxtb	r4, r4
    2140:	54c4      	strb	r4, [r0, r3]
{
    2142:	0005      	movs	r5, r0
	};
    2144:	0032      	movs	r2, r6
    2146:	2100      	movs	r1, #0
    2148:	4668      	mov	r0, sp
    214a:	f002 fc38 	bl	49be <memset>
    214e:	466a      	mov	r2, sp
    2150:	2309      	movs	r3, #9
    2152:	7013      	strb	r3, [r2, #0]
    2154:	3b05      	subs	r3, #5
    2156:	7053      	strb	r3, [r2, #1]
    2158:	2102      	movs	r1, #2
    215a:	23ff      	movs	r3, #255	; 0xff
    215c:	7111      	strb	r1, [r2, #4]
    215e:	7153      	strb	r3, [r2, #5]
    2160:	2207      	movs	r2, #7
    2162:	466b      	mov	r3, sp
    2164:	4668      	mov	r0, sp
    2166:	725a      	strb	r2, [r3, #9]
    2168:	2305      	movs	r3, #5
    216a:	7301      	strb	r1, [r0, #12]
    216c:	7283      	strb	r3, [r0, #10]
    216e:	2040      	movs	r0, #64	; 0x40
    2170:	310b      	adds	r1, #11
    2172:	4469      	add	r1, sp
    2174:	7008      	strb	r0, [r1, #0]
    2176:	2000      	movs	r0, #0
    2178:	7048      	strb	r0, [r1, #1]
    217a:	4669      	mov	r1, sp
    217c:	740a      	strb	r2, [r1, #16]
    217e:	4a0c      	ldr	r2, [pc, #48]	; (21b0 <_ZN7CDCIso_12getInterfaceEPh+0x88>)
    2180:	744b      	strb	r3, [r1, #17]
    2182:	3b04      	subs	r3, #4
    2184:	828a      	strh	r2, [r1, #20]
    2186:	74cb      	strb	r3, [r1, #19]
    2188:	758b      	strb	r3, [r1, #22]
		D_INTERFACE(uint8_t(pluggedInterface + 1), 2, 0xFF, 0, 0),
    218a:	792b      	ldrb	r3, [r5, #4]
	return USBDevice.sendControl(&_cdcIsoInterface, sizeof(_cdcIsoInterface));		
    218c:	0032      	movs	r2, r6
		D_INTERFACE(uint8_t(pluggedInterface + 1), 2, 0xFF, 0, 0),
    218e:	3301      	adds	r3, #1
	};
    2190:	708b      	strb	r3, [r1, #2]
		D_ENDPOINT(USB_ENDPOINT_IN (pluggedEndpoint+1), USB_ENDPOINT_TYPE_ISOCHRONOUS, 1023, 1)
    2192:	2380      	movs	r3, #128	; 0x80
    2194:	425b      	negs	r3, r3
    2196:	431c      	orrs	r4, r3
	return USBDevice.sendControl(&_cdcIsoInterface, sizeof(_cdcIsoInterface));		
    2198:	4806      	ldr	r0, [pc, #24]	; (21b4 <_ZN7CDCIso_12getInterfaceEPh+0x8c>)
	};
    219a:	72cf      	strb	r7, [r1, #11]
    219c:	748c      	strb	r4, [r1, #18]
	return USBDevice.sendControl(&_cdcIsoInterface, sizeof(_cdcIsoInterface));		
    219e:	f001 fb97 	bl	38d0 <_ZN14USBDeviceClass11sendControlEPKvm>
}
    21a2:	b007      	add	sp, #28
    21a4:	bdf0      	pop	{r4, r5, r6, r7, pc}
    21a6:	46c0      	nop			; (mov r8, r8)
    21a8:	0000081c 	.word	0x0000081c
    21ac:	0000081d 	.word	0x0000081d
    21b0:	000003ff 	.word	0x000003ff
    21b4:	2000096c 	.word	0x2000096c

000021b8 <_ZN7CDCIso_C1Ev>:
    numEndpoints(numEps), numInterfaces(numIfs), endpointType(epType)
    21b8:	2302      	movs	r3, #2
CDCIso_::CDCIso_(void) : PluggableUSBModule(2,2,epIsoType)
    21ba:	b510      	push	{r4, lr}
    21bc:	7183      	strb	r3, [r0, #6]
    21be:	71c3      	strb	r3, [r0, #7]
    21c0:	4b0d      	ldr	r3, [pc, #52]	; (21f8 <_ZN7CDCIso_C1Ev+0x40>)
    21c2:	4a0e      	ldr	r2, [pc, #56]	; (21fc <_ZN7CDCIso_C1Ev+0x44>)
    21c4:	18c3      	adds	r3, r0, r3
    21c6:	6083      	str	r3, [r0, #8]
    21c8:	2300      	movs	r3, #0
    21ca:	3208      	adds	r2, #8
    21cc:	6002      	str	r2, [r0, #0]
    21ce:	4a0c      	ldr	r2, [pc, #48]	; (2200 <_ZN7CDCIso_C1Ev+0x48>)
    21d0:	60c3      	str	r3, [r0, #12]
    21d2:	5083      	str	r3, [r0, r2]
    21d4:	4a0b      	ldr	r2, [pc, #44]	; (2204 <_ZN7CDCIso_C1Ev+0x4c>)
    21d6:	0004      	movs	r4, r0
    21d8:	5483      	strb	r3, [r0, r2]
    21da:	4a0b      	ldr	r2, [pc, #44]	; (2208 <_ZN7CDCIso_C1Ev+0x50>)
    21dc:	5483      	strb	r3, [r0, r2]
	epIsoType[0] = USB_ENDPOINT_TYPE_BULK | USB_ENDPOINT_IN(0);
    21de:	2282      	movs	r2, #130	; 0x82
    21e0:	4b05      	ldr	r3, [pc, #20]	; (21f8 <_ZN7CDCIso_C1Ev+0x40>)
    21e2:	50c2      	str	r2, [r0, r3]
	epIsoType[1] = USB_ENDPOINT_TYPE_ISOCHRONOUS | USB_ENDPOINT_IN(0);
    21e4:	4b09      	ldr	r3, [pc, #36]	; (220c <_ZN7CDCIso_C1Ev+0x54>)
    21e6:	3a01      	subs	r2, #1
    21e8:	50c2      	str	r2, [r0, r3]
    PluggableUSB().plug(this);
    21ea:	f000 fdcf 	bl	2d8c <_Z12PluggableUSBv>
    21ee:	0021      	movs	r1, r4
    21f0:	f000 fda0 	bl	2d34 <_ZN13PluggableUSB_4plugEP18PluggableUSBModule>
}
    21f4:	0020      	movs	r0, r4
    21f6:	bd10      	pop	{r4, pc}
    21f8:	00000834 	.word	0x00000834
    21fc:	00004b8c 	.word	0x00004b8c
    2200:	00000818 	.word	0x00000818
    2204:	0000083c 	.word	0x0000083c
    2208:	0000083d 	.word	0x0000083d
    220c:	00000838 	.word	0x00000838

00002210 <_ZN7CDCIso_15enableInterruptEv>:

void CDCIso_::enableInterrupt() {
	USB->DEVICE.DeviceEndpoint[epEPNum[0]].EPINTENSET.bit.TRCPT0=1; //TO DO CHECK RIGHT BANK?
    2210:	4b09      	ldr	r3, [pc, #36]	; (2238 <_ZN7CDCIso_15enableInterruptEv+0x28>)
    2212:	4a0a      	ldr	r2, [pc, #40]	; (223c <_ZN7CDCIso_15enableInterruptEv+0x2c>)
    2214:	5cc3      	ldrb	r3, [r0, r3]
    2216:	015b      	lsls	r3, r3, #5
    2218:	189b      	adds	r3, r3, r2
    221a:	2201      	movs	r2, #1
    221c:	7a99      	ldrb	r1, [r3, #10]
    221e:	430a      	orrs	r2, r1
    2220:	729a      	strb	r2, [r3, #10]
	USB->DEVICE.DeviceEndpoint[epEPNum[1]].EPINTENSET.bit.TRCPT1=1;
    2222:	4b07      	ldr	r3, [pc, #28]	; (2240 <_ZN7CDCIso_15enableInterruptEv+0x30>)
    2224:	4a05      	ldr	r2, [pc, #20]	; (223c <_ZN7CDCIso_15enableInterruptEv+0x2c>)
    2226:	5cc3      	ldrb	r3, [r0, r3]
    2228:	015b      	lsls	r3, r3, #5
    222a:	189b      	adds	r3, r3, r2
    222c:	2202      	movs	r2, #2
    222e:	7a99      	ldrb	r1, [r3, #10]
    2230:	430a      	orrs	r2, r1
    2232:	729a      	strb	r2, [r3, #10]
}
    2234:	4770      	bx	lr
    2236:	46c0      	nop			; (mov r8, r8)
    2238:	0000081c 	.word	0x0000081c
    223c:	410050ff 	.word	0x410050ff
    2240:	0000081d 	.word	0x0000081d

00002244 <_ZN7CDCIso_4sendEmPKvm>:
		return 0;
	}
}

uint32_t CDCIso_::send(uint32_t ep, const void *data, uint32_t len)
{
    2244:	b5f7      	push	{r0, r1, r2, r4, r5, r6, r7, lr}
    2246:	001e      	movs	r6, r3
	uint32_t written = 0;
	uint32_t length = 0;

	if (!usbConfiguration)
    2248:	4b35      	ldr	r3, [pc, #212]	; (2320 <_ZN7CDCIso_4sendEmPKvm+0xdc>)
{
    224a:	0004      	movs	r4, r0
	if (!usbConfiguration)
    224c:	58c3      	ldr	r3, [r0, r3]
{
    224e:	9201      	str	r2, [sp, #4]
	if (!usbConfiguration)
    2250:	2b00      	cmp	r3, #0
    2252:	d056      	beq.n	2302 <_ZN7CDCIso_4sendEmPKvm+0xbe>
	return -1;
	if (len > 16384)
    2254:	2380      	movs	r3, #128	; 0x80
    2256:	01db      	lsls	r3, r3, #7
    2258:	429e      	cmp	r6, r3
    225a:	d852      	bhi.n	2302 <_ZN7CDCIso_4sendEmPKvm+0xbe>
    225c:	2700      	movs	r7, #0

	txLEDPulse = TX_RX_LED_PULSE_MS;
	#endif

	// Flash area
	while (len != 0)
    225e:	2e00      	cmp	r6, #0
    2260:	d051      	beq.n	2306 <_ZN7CDCIso_4sendEmPKvm+0xc2>
	{
		if (USB->DEVICE.DeviceEndpoint[epEPNum[1]].EPSTATUS.bit.BK1RDY) { //USBCore equivalent: usbd.epBank1IsReady(ep) or usb.DeviceEndpoint[ep].EPSTATUS.bit.BK1RDY;
    2262:	4b30      	ldr	r3, [pc, #192]	; (2324 <_ZN7CDCIso_4sendEmPKvm+0xe0>)
    2264:	4a30      	ldr	r2, [pc, #192]	; (2328 <_ZN7CDCIso_4sendEmPKvm+0xe4>)
    2266:	5ce3      	ldrb	r3, [r4, r3]
    2268:	4d30      	ldr	r5, [pc, #192]	; (232c <_ZN7CDCIso_4sendEmPKvm+0xe8>)
    226a:	015b      	lsls	r3, r3, #5
    226c:	189b      	adds	r3, r3, r2
    226e:	799b      	ldrb	r3, [r3, #6]
    2270:	09db      	lsrs	r3, r3, #7
    2272:	d01c      	beq.n	22ae <_ZN7CDCIso_4sendEmPKvm+0x6a>
			// previous transfer is still not complete
			// convert the timeout from microseconds to a number of times through
			// the wait loop; it takes (roughly) 23 clock cycles per iteration.
			uint32_t timeout = microsecondsToClockCycles(70 * 1000) / 23; //70msec
    2274:	4b2e      	ldr	r3, [pc, #184]	; (2330 <_ZN7CDCIso_4sendEmPKvm+0xec>)
    2276:	492f      	ldr	r1, [pc, #188]	; (2334 <_ZN7CDCIso_4sendEmPKvm+0xf0>)
    2278:	6818      	ldr	r0, [r3, #0]
    227a:	f002 fad3 	bl	4824 <__udivsi3>
    227e:	4b2e      	ldr	r3, [pc, #184]	; (2338 <_ZN7CDCIso_4sendEmPKvm+0xf4>)
    2280:	2117      	movs	r1, #23
    2282:	4358      	muls	r0, r3
    2284:	f002 face 	bl	4824 <__udivsi3>
			while (!USB->DEVICE.DeviceEndpoint[epEPNum[1]].EPINTFLAG.bit.TRCPT1) { //USBCore equivalent: usbd.epBank1IsTransferComplete(ep) or usb.DeviceEndpoint[ep].EPINTFLAG.bit.TRCPT1;
				if (LastTransmitTimedOut[1] || timeout-- == 0) {
					LastTransmitTimedOut[1] = 1;
					// set byte count to zero, so that ZLP is sent
					// instead of stale data
					*(EPn_BK1_Addr.b8+0x004) = *(EPn_BK1_Addr.b8+0x004) & (0xFFFFFFF0);  //Byte count on position 0 to 7 set to 0 //USBCore equivalent: usbd.epBank1SetByteCount(ep, 0) or EP[ep].DeviceDescBank[1].PCKSIZE.bit.BYTE_COUNT = bc; 
    2288:	230f      	movs	r3, #15
    228a:	2183      	movs	r1, #131	; 0x83
    228c:	469c      	mov	ip, r3
    228e:	0109      	lsls	r1, r1, #4
			while (!USB->DEVICE.DeviceEndpoint[epEPNum[1]].EPINTFLAG.bit.TRCPT1) { //USBCore equivalent: usbd.epBank1IsTransferComplete(ep) or usb.DeviceEndpoint[ep].EPINTFLAG.bit.TRCPT1;
    2290:	4b24      	ldr	r3, [pc, #144]	; (2324 <_ZN7CDCIso_4sendEmPKvm+0xe0>)
    2292:	4a25      	ldr	r2, [pc, #148]	; (2328 <_ZN7CDCIso_4sendEmPKvm+0xe4>)
    2294:	5ce3      	ldrb	r3, [r4, r3]
    2296:	015b      	lsls	r3, r3, #5
    2298:	189b      	adds	r3, r3, r2
    229a:	79db      	ldrb	r3, [r3, #7]
    229c:	079b      	lsls	r3, r3, #30
    229e:	d406      	bmi.n	22ae <_ZN7CDCIso_4sendEmPKvm+0x6a>
				if (LastTransmitTimedOut[1] || timeout-- == 0) {
    22a0:	5d63      	ldrb	r3, [r4, r5]
    22a2:	2b00      	cmp	r3, #0
    22a4:	d133      	bne.n	230e <_ZN7CDCIso_4sendEmPKvm+0xca>
    22a6:	2800      	cmp	r0, #0
    22a8:	d02f      	beq.n	230a <_ZN7CDCIso_4sendEmPKvm+0xc6>
    22aa:	3801      	subs	r0, #1
    22ac:	e7f0      	b.n	2290 <_ZN7CDCIso_4sendEmPKvm+0x4c>
					//return -1;
				}
			}
		}

		LastTransmitTimedOut[1] = 0;
    22ae:	2300      	movs	r3, #0
    22b0:	5563      	strb	r3, [r4, r5]
		
		if (len >= iso_pcksize) {
    22b2:	2381      	movs	r3, #129	; 0x81
    22b4:	011b      	lsls	r3, r3, #4
    22b6:	58e5      	ldr	r5, [r4, r3]
    22b8:	42b5      	cmp	r5, r6
    22ba:	d900      	bls.n	22be <_ZN7CDCIso_4sendEmPKvm+0x7a>
    22bc:	0035      	movs	r5, r6
			} else {
			length = len;
		}

		/* memcopy could be safer in multi threaded environment */
		memcpy(&databuffer, data, length);
    22be:	2382      	movs	r3, #130	; 0x82
    22c0:	00db      	lsls	r3, r3, #3
    22c2:	002a      	movs	r2, r5
    22c4:	9901      	ldr	r1, [sp, #4]
    22c6:	18e0      	adds	r0, r4, r3
    22c8:	f002 fb70 	bl	49ac <memcpy>

		//set Byte count to length of data
		*(uint32_t *) (EPn_BK1_Addr.b8+0x004) = *(uint32_t *) (EPn_BK1_Addr.b8+0x004) | (length);  //Byte count on position 0 to 13 set to length //USBCore equivalent: usbd.epBank1SetByteCount(ep, 0) or EP[ep].DeviceDescBank[1].PCKSIZE.bit.BYTE_COUNT = bc; 
    22cc:	2383      	movs	r3, #131	; 0x83
    22ce:	011b      	lsls	r3, r3, #4
    22d0:	58e2      	ldr	r2, [r4, r3]

		// Clear the transfer complete flag
		USB->DEVICE.DeviceEndpoint[epEPNum[1]].EPINTFLAG.reg = ((0x3ul << 0) & (2 << 0));//USBCore equivalent code: usbd.epBank1AckTransferComplete(ep) or usb.DeviceEndpoint[ep].EPINTFLAG.reg = USB_DEVICE_EPINTFLAG_TRCPT(2);
    22d2:	491a      	ldr	r1, [pc, #104]	; (233c <_ZN7CDCIso_4sendEmPKvm+0xf8>)
		*(uint32_t *) (EPn_BK1_Addr.b8+0x004) = *(uint32_t *) (EPn_BK1_Addr.b8+0x004) | (length);  //Byte count on position 0 to 13 set to length //USBCore equivalent: usbd.epBank1SetByteCount(ep, 0) or EP[ep].DeviceDescBank[1].PCKSIZE.bit.BYTE_COUNT = bc; 
    22d4:	6853      	ldr	r3, [r2, #4]

		// RAM buffer is full, we can send data (IN)
		USB->DEVICE.DeviceEndpoint[epEPNum[1]].EPSTATUSSET.bit.BK1RDY=1; //USBCore equivalent code: usbd.epBank1SetReady(ep) or usb.DeviceEndpoint[ep].EPSTATUSSET.bit.BK1RDY = 1
		
		written += length;
    22d6:	197f      	adds	r7, r7, r5
		*(uint32_t *) (EPn_BK1_Addr.b8+0x004) = *(uint32_t *) (EPn_BK1_Addr.b8+0x004) | (length);  //Byte count on position 0 to 13 set to length //USBCore equivalent: usbd.epBank1SetByteCount(ep, 0) or EP[ep].DeviceDescBank[1].PCKSIZE.bit.BYTE_COUNT = bc; 
    22d8:	432b      	orrs	r3, r5
    22da:	6053      	str	r3, [r2, #4]
		USB->DEVICE.DeviceEndpoint[epEPNum[1]].EPINTFLAG.reg = ((0x3ul << 0) & (2 << 0));//USBCore equivalent code: usbd.epBank1AckTransferComplete(ep) or usb.DeviceEndpoint[ep].EPINTFLAG.reg = USB_DEVICE_EPINTFLAG_TRCPT(2);
    22dc:	4b11      	ldr	r3, [pc, #68]	; (2324 <_ZN7CDCIso_4sendEmPKvm+0xe0>)
    22de:	4a18      	ldr	r2, [pc, #96]	; (2340 <_ZN7CDCIso_4sendEmPKvm+0xfc>)
    22e0:	5ce3      	ldrb	r3, [r4, r3]
		len -= length;
    22e2:	1b76      	subs	r6, r6, r5
		USB->DEVICE.DeviceEndpoint[epEPNum[1]].EPINTFLAG.reg = ((0x3ul << 0) & (2 << 0));//USBCore equivalent code: usbd.epBank1AckTransferComplete(ep) or usb.DeviceEndpoint[ep].EPINTFLAG.reg = USB_DEVICE_EPINTFLAG_TRCPT(2);
    22e4:	3308      	adds	r3, #8
    22e6:	015b      	lsls	r3, r3, #5
    22e8:	189a      	adds	r2, r3, r2
    22ea:	185b      	adds	r3, r3, r1
    22ec:	2102      	movs	r1, #2
    22ee:	7019      	strb	r1, [r3, #0]
		USB->DEVICE.DeviceEndpoint[epEPNum[1]].EPSTATUSSET.bit.BK1RDY=1; //USBCore equivalent code: usbd.epBank1SetReady(ep) or usb.DeviceEndpoint[ep].EPSTATUSSET.bit.BK1RDY = 1
    22f0:	2380      	movs	r3, #128	; 0x80
    22f2:	7951      	ldrb	r1, [r2, #5]
    22f4:	425b      	negs	r3, r3
    22f6:	430b      	orrs	r3, r1
    22f8:	7153      	strb	r3, [r2, #5]
		data = (char *)data + length;
    22fa:	9b01      	ldr	r3, [sp, #4]
    22fc:	195b      	adds	r3, r3, r5
    22fe:	9301      	str	r3, [sp, #4]
    2300:	e7ad      	b.n	225e <_ZN7CDCIso_4sendEmPKvm+0x1a>
	return -1;
    2302:	2701      	movs	r7, #1
    2304:	427f      	negs	r7, r7

	}

	return written;
    2306:	0038      	movs	r0, r7
    2308:	bdfe      	pop	{r1, r2, r3, r4, r5, r6, r7, pc}
				if (LastTransmitTimedOut[1] || timeout-- == 0) {
    230a:	2001      	movs	r0, #1
    230c:	4240      	negs	r0, r0
					LastTransmitTimedOut[1] = 1;
    230e:	2301      	movs	r3, #1
					*(EPn_BK1_Addr.b8+0x004) = *(EPn_BK1_Addr.b8+0x004) & (0xFFFFFFF0);  //Byte count on position 0 to 7 set to 0 //USBCore equivalent: usbd.epBank1SetByteCount(ep, 0) or EP[ep].DeviceDescBank[1].PCKSIZE.bit.BYTE_COUNT = bc; 
    2310:	4662      	mov	r2, ip
					LastTransmitTimedOut[1] = 1;
    2312:	5563      	strb	r3, [r4, r5]
					*(EPn_BK1_Addr.b8+0x004) = *(EPn_BK1_Addr.b8+0x004) & (0xFFFFFFF0);  //Byte count on position 0 to 7 set to 0 //USBCore equivalent: usbd.epBank1SetByteCount(ep, 0) or EP[ep].DeviceDescBank[1].PCKSIZE.bit.BYTE_COUNT = bc; 
    2314:	5863      	ldr	r3, [r4, r1]
    2316:	791b      	ldrb	r3, [r3, #4]
    2318:	4393      	bics	r3, r2
    231a:	5862      	ldr	r2, [r4, r1]
    231c:	7113      	strb	r3, [r2, #4]
    231e:	e7b7      	b.n	2290 <_ZN7CDCIso_4sendEmPKvm+0x4c>
    2320:	00000818 	.word	0x00000818
    2324:	0000081d 	.word	0x0000081d
    2328:	41005100 	.word	0x41005100
    232c:	0000083d 	.word	0x0000083d
    2330:	20000014 	.word	0x20000014
    2334:	000f4240 	.word	0x000f4240
    2338:	00011170 	.word	0x00011170
    233c:	41005007 	.word	0x41005007
    2340:	41005000 	.word	0x41005000

00002344 <_ZN7CDCIso_5writeEPKhj>:
{
    2344:	b510      	push	{r4, lr}
    2346:	000c      	movs	r4, r1
    2348:	0013      	movs	r3, r2
	uint32_t r = send(epEPNum[1], buffer, size);
    234a:	4a03      	ldr	r2, [pc, #12]	; (2358 <_ZN7CDCIso_5writeEPKhj+0x14>)
    234c:	5c81      	ldrb	r1, [r0, r2]
    234e:	0022      	movs	r2, r4
    2350:	f7ff ff78 	bl	2244 <_ZN7CDCIso_4sendEmPKvm>
}
    2354:	bd10      	pop	{r4, pc}
    2356:	46c0      	nop			; (mov r8, r8)
    2358:	0000081d 	.word	0x0000081d

0000235c <_ZN7CDCIso_14handleEndpointEi>:
void CDCIso_::handleEndpoint(int ep) {
    235c:	b510      	push	{r4, lr}
	if (ep==epEPNum[1]) {
    235e:	4b06      	ldr	r3, [pc, #24]	; (2378 <_ZN7CDCIso_14handleEndpointEi+0x1c>)
    2360:	5cc3      	ldrb	r3, [r0, r3]
    2362:	428b      	cmp	r3, r1
    2364:	d107      	bne.n	2376 <_ZN7CDCIso_14handleEndpointEi+0x1a>
		lenwritebuffer=sizeof(writebuffer);
    2366:	22ff      	movs	r2, #255	; 0xff
		write(writebuffer,1023);
    2368:	0001      	movs	r1, r0
		lenwritebuffer=sizeof(writebuffer);
    236a:	4b04      	ldr	r3, [pc, #16]	; (237c <_ZN7CDCIso_14handleEndpointEi+0x20>)
		write(writebuffer,1023);
    236c:	3110      	adds	r1, #16
		lenwritebuffer=sizeof(writebuffer);
    236e:	54c2      	strb	r2, [r0, r3]
		write(writebuffer,1023);
    2370:	4a03      	ldr	r2, [pc, #12]	; (2380 <_ZN7CDCIso_14handleEndpointEi+0x24>)
    2372:	f7ff ffe7 	bl	2344 <_ZN7CDCIso_5writeEPKhj>
}
    2376:	bd10      	pop	{r4, pc}
    2378:	0000081d 	.word	0x0000081d
    237c:	0000040f 	.word	0x0000040f
    2380:	000003ff 	.word	0x000003ff

00002384 <_Z15UDD_Handler_Isov>:


CDCIso_ USBISO;


void UDD_Handler_Iso(void) {
    2384:	b570      	push	{r4, r5, r6, lr}

if (USB->DEVICE.DeviceEndpoint[0].EPINTFLAG.bit.RXSTP) { //USBCore equivalent code:usbd.epBank0IsSetupReceived(0) or usb.DeviceEndpoint[ep].EPINTFLAG.bit.RXSTP; 
    2386:	4b31      	ldr	r3, [pc, #196]	; (244c <_Z15UDD_Handler_Isov+0xc8>)
    2388:	4d31      	ldr	r5, [pc, #196]	; (2450 <_Z15UDD_Handler_Isov+0xcc>)
    238a:	7a1b      	ldrb	r3, [r3, #8]
    238c:	06db      	lsls	r3, r3, #27
    238e:	d550      	bpl.n	2432 <_Z15UDD_Handler_Isov+0xae>
	USBISO.EP0_BK0_Addr.b32=(uint32_t *) (USB->DEVICE.DESCADD.reg);
    2390:	4c30      	ldr	r4, [pc, #192]	; (2454 <_Z15UDD_Handler_Isov+0xd0>)
    2392:	6a6e      	ldr	r6, [r5, #36]	; 0x24
    2394:	4b30      	ldr	r3, [pc, #192]	; (2458 <_Z15UDD_Handler_Isov+0xd4>)
	//DESCADD contains the address (=> cast to 32 bit adddress) to the pointer that contains (=>request content) the address (cast to 32bit address) to the EP0 BK0 content
	memcpy(&(USBISO.EP0_BK0), (uint32_t *) *((uint32_t *) (USB->DEVICE.DESCADD.reg)), sizeof(USBSetup)); 
    2396:	2208      	movs	r2, #8
	USBISO.EP0_BK0_Addr.b32=(uint32_t *) (USB->DEVICE.DESCADD.reg);
    2398:	50e6      	str	r6, [r4, r3]
	memcpy(&(USBISO.EP0_BK0), (uint32_t *) *((uint32_t *) (USB->DEVICE.DESCADD.reg)), sizeof(USBSetup)); 
    239a:	6a6b      	ldr	r3, [r5, #36]	; 0x24
    239c:	6819      	ldr	r1, [r3, #0]
    239e:	4b2f      	ldr	r3, [pc, #188]	; (245c <_Z15UDD_Handler_Isov+0xd8>)
    23a0:	18e0      	adds	r0, r4, r3
    23a2:	f002 fb03 	bl	49ac <memcpy>
	if (REQUEST_STANDARD == (USBISO.EP0_BK0.bmRequestType & REQUEST_TYPE)) {
    23a6:	2260      	movs	r2, #96	; 0x60
    23a8:	4b2c      	ldr	r3, [pc, #176]	; (245c <_Z15UDD_Handler_Isov+0xd8>)
    23aa:	5ce3      	ldrb	r3, [r4, r3]
    23ac:	4213      	tst	r3, r2
    23ae:	d140      	bne.n	2432 <_Z15UDD_Handler_Isov+0xae>
		switch (USBISO.EP0_BK0.bRequest) {
    23b0:	4a2b      	ldr	r2, [pc, #172]	; (2460 <_Z15UDD_Handler_Isov+0xdc>)
    23b2:	5ca2      	ldrb	r2, [r4, r2]
    23b4:	2a09      	cmp	r2, #9
    23b6:	d13c      	bne.n	2432 <_Z15UDD_Handler_Isov+0xae>
		case SET_CONFIGURATION:
			if (REQUEST_DEVICE == (USBISO.EP0_BK0.bmRequestType & REQUEST_RECIPIENT)) {
    23b8:	06db      	lsls	r3, r3, #27
    23ba:	d13a      	bne.n	2432 <_Z15UDD_Handler_Isov+0xae>
				switch (USBISO.iso_pcksize) {  //EP[ep].DeviceDescBank[1].PCKSIZE.bit.SIZE
    23bc:	2381      	movs	r3, #129	; 0x81
    23be:	011b      	lsls	r3, r3, #4
    23c0:	58e3      	ldr	r3, [r4, r3]
    23c2:	4a28      	ldr	r2, [pc, #160]	; (2464 <_Z15UDD_Handler_Isov+0xe0>)
    23c4:	2b40      	cmp	r3, #64	; 0x40
    23c6:	d006      	beq.n	23d6 <_Z15UDD_Handler_Isov+0x52>
    23c8:	d808      	bhi.n	23dc <_Z15UDD_Handler_Isov+0x58>
    23ca:	2b10      	cmp	r3, #16
    23cc:	d003      	beq.n	23d6 <_Z15UDD_Handler_Isov+0x52>
    23ce:	2b20      	cmp	r3, #32
    23d0:	d001      	beq.n	23d6 <_Z15UDD_Handler_Isov+0x52>
    23d2:	2b08      	cmp	r3, #8
    23d4:	d109      	bne.n	23ea <_Z15UDD_Handler_Isov+0x66>
					case 256:
						USBISO.iso_pckcode = 0x05;
					case 512:
						USBISO.iso_pckcode = 0x06;
					case 1024:
						USBISO.iso_pckcode = 0x07; //1024 is necessary is the check below is >= and otherwise always AutoZLP!! //TO DO define HS
    23d6:	2307      	movs	r3, #7
    23d8:	54a3      	strb	r3, [r4, r2]
    23da:	e006      	b.n	23ea <_Z15UDD_Handler_Isov+0x66>
				switch (USBISO.iso_pcksize) {  //EP[ep].DeviceDescBank[1].PCKSIZE.bit.SIZE
    23dc:	2180      	movs	r1, #128	; 0x80
    23de:	0049      	lsls	r1, r1, #1
    23e0:	428b      	cmp	r3, r1
    23e2:	d0f8      	beq.n	23d6 <_Z15UDD_Handler_Isov+0x52>
    23e4:	d829      	bhi.n	243a <_Z15UDD_Handler_Isov+0xb6>
    23e6:	2b80      	cmp	r3, #128	; 0x80
    23e8:	d0f5      	beq.n	23d6 <_Z15UDD_Handler_Isov+0x52>
				}
				USBISO.EPn_BK1_Addr.b8 = USBISO.EP0_BK0_Addr.b8 + 2*0x10*USBISO.epEPNum[1]+0x10; //EPn has offset 2x (0xn0) //BK1 has offset 0x10
    23ea:	491f      	ldr	r1, [pc, #124]	; (2468 <_Z15UDD_Handler_Isov+0xe4>)
				*(USBISO.EPn_BK1_Addr.b32) = (uint32_t) &(USBISO.databuffer); //Set EPn_BK1 32bit content (=> cast to 32bit value) to address of data_iso_buffer; Equivalent to USBCore statement: usbd.epBank1SetAddress(ep, &udd_ep_in_cache_buffer[ep]);
    23ec:	2082      	movs	r0, #130	; 0x82
				USBISO.EPn_BK1_Addr.b8 = USBISO.EP0_BK0_Addr.b8 + 2*0x10*USBISO.epEPNum[1]+0x10; //EPn has offset 2x (0xn0) //BK1 has offset 0x10
    23ee:	5c63      	ldrb	r3, [r4, r1]
				*(USBISO.EPn_BK1_Addr.b32) = (uint32_t) &(USBISO.databuffer); //Set EPn_BK1 32bit content (=> cast to 32bit value) to address of data_iso_buffer; Equivalent to USBCore statement: usbd.epBank1SetAddress(ep, &udd_ep_in_cache_buffer[ep]);
    23f0:	00c0      	lsls	r0, r0, #3
				USBISO.EPn_BK1_Addr.b8 = USBISO.EP0_BK0_Addr.b8 + 2*0x10*USBISO.epEPNum[1]+0x10; //EPn has offset 2x (0xn0) //BK1 has offset 0x10
    23f2:	015b      	lsls	r3, r3, #5
    23f4:	3310      	adds	r3, #16
    23f6:	18f6      	adds	r6, r6, r3
    23f8:	2383      	movs	r3, #131	; 0x83
				*(USBISO.EPn_BK1_Addr.b32) = (uint32_t) &(USBISO.databuffer); //Set EPn_BK1 32bit content (=> cast to 32bit value) to address of data_iso_buffer; Equivalent to USBCore statement: usbd.epBank1SetAddress(ep, &udd_ep_in_cache_buffer[ep]);
    23fa:	1820      	adds	r0, r4, r0
				USBISO.EPn_BK1_Addr.b8 = USBISO.EP0_BK0_Addr.b8 + 2*0x10*USBISO.epEPNum[1]+0x10; //EPn has offset 2x (0xn0) //BK1 has offset 0x10
    23fc:	011b      	lsls	r3, r3, #4
    23fe:	50e6      	str	r6, [r4, r3]
				*(USBISO.EPn_BK1_Addr.b32) = (uint32_t) &(USBISO.databuffer); //Set EPn_BK1 32bit content (=> cast to 32bit value) to address of data_iso_buffer; Equivalent to USBCore statement: usbd.epBank1SetAddress(ep, &udd_ep_in_cache_buffer[ep]);
    2400:	6030      	str	r0, [r6, #0]
				*(uint32_t *)(USBISO.EPn_BK1_Addr.b8+0x004) = *(uint32_t *) (USBISO.EPn_BK1_Addr.b8+0x004) | ((uint32_t) USBISO.iso_pckcode << 28); //PckSize has offset 0x004; 0x7 on position 28 means 1023bit; Equivalent to USBCore statement: usbd.epBank1SetSize(ep, 1023);
    2402:	58e0      	ldr	r0, [r4, r3]
    2404:	5ca3      	ldrb	r3, [r4, r2]
    2406:	6842      	ldr	r2, [r0, #4]
    2408:	071b      	lsls	r3, r3, #28
    240a:	4313      	orrs	r3, r2
    240c:	6043      	str	r3, [r0, #4]
				USB->DEVICE.DeviceEndpoint[USBISO.epEPNum[1]].EPCFG.bit.EPTYPE1 = 2; //0x02 stands for IN Isochronous
    240e:	5c63      	ldrb	r3, [r4, r1]
    2410:	2170      	movs	r1, #112	; 0x70
    2412:	3308      	adds	r3, #8
    2414:	015b      	lsls	r3, r3, #5
    2416:	5cea      	ldrb	r2, [r5, r3]
				USBISO.usbConfiguration = USBISO.EP0_BK0.wValueL;
				USBISO.enableInterrupt();
    2418:	0020      	movs	r0, r4
				USB->DEVICE.DeviceEndpoint[USBISO.epEPNum[1]].EPCFG.bit.EPTYPE1 = 2; //0x02 stands for IN Isochronous
    241a:	438a      	bics	r2, r1
    241c:	0011      	movs	r1, r2
    241e:	2220      	movs	r2, #32
    2420:	430a      	orrs	r2, r1
    2422:	54ea      	strb	r2, [r5, r3]
				USBISO.usbConfiguration = USBISO.EP0_BK0.wValueL;
    2424:	2382      	movs	r3, #130	; 0x82
    2426:	011b      	lsls	r3, r3, #4
    2428:	5ce2      	ldrb	r2, [r4, r3]
    242a:	4b10      	ldr	r3, [pc, #64]	; (246c <_Z15UDD_Handler_Isov+0xe8>)
    242c:	50e2      	str	r2, [r4, r3]
				USBISO.enableInterrupt();
    242e:	f7ff feef 	bl	2210 <_ZN7CDCIso_15enableInterruptEv>
				//leave it to the USBCore to handle the other EP's
			}	
		}
	}
}
USBDevice.ISRHandler();
    2432:	480f      	ldr	r0, [pc, #60]	; (2470 <_Z15UDD_Handler_Isov+0xec>)
    2434:	f001 fbe8 	bl	3c08 <_ZN14USBDeviceClass10ISRHandlerEv>
	
}
    2438:	bd70      	pop	{r4, r5, r6, pc}
				switch (USBISO.iso_pcksize) {  //EP[ep].DeviceDescBank[1].PCKSIZE.bit.SIZE
    243a:	2180      	movs	r1, #128	; 0x80
    243c:	0089      	lsls	r1, r1, #2
    243e:	428b      	cmp	r3, r1
    2440:	d0c9      	beq.n	23d6 <_Z15UDD_Handler_Isov+0x52>
    2442:	2180      	movs	r1, #128	; 0x80
    2444:	00c9      	lsls	r1, r1, #3
    2446:	428b      	cmp	r3, r1
    2448:	d1cf      	bne.n	23ea <_Z15UDD_Handler_Isov+0x66>
    244a:	e7c4      	b.n	23d6 <_Z15UDD_Handler_Isov+0x52>
    244c:	410050ff 	.word	0x410050ff
    2450:	41005000 	.word	0x41005000
    2454:	200000bc 	.word	0x200000bc
    2458:	0000082c 	.word	0x0000082c
    245c:	0000081e 	.word	0x0000081e
    2460:	0000081f 	.word	0x0000081f
    2464:	00000814 	.word	0x00000814
    2468:	0000081d 	.word	0x0000081d
    246c:	00000818 	.word	0x00000818
    2470:	2000096c 	.word	0x2000096c

00002474 <setup>:


void setup() {
	// put your setup code here, to run once:

	USBISO.iso_pcksize=1024;
    2474:	2280      	movs	r2, #128	; 0x80
    2476:	2381      	movs	r3, #129	; 0x81
void setup() {
    2478:	b570      	push	{r4, r5, r6, lr}
	USBISO.iso_pcksize=1024;
    247a:	4c13      	ldr	r4, [pc, #76]	; (24c8 <setup+0x54>)
    247c:	00d2      	lsls	r2, r2, #3
    247e:	011b      	lsls	r3, r3, #4
	USB_SetHandler(UDD_Handler_Iso);
    2480:	4812      	ldr	r0, [pc, #72]	; (24cc <setup+0x58>)
	USBISO.iso_pcksize=1024;
    2482:	50e2      	str	r2, [r4, r3]
	USB_SetHandler(UDD_Handler_Iso);
    2484:	f000 f872 	bl	256c <USB_SetHandler>
	SerialUSB.print("test");
    2488:	4e11      	ldr	r6, [pc, #68]	; (24d0 <setup+0x5c>)
    248a:	4d12      	ldr	r5, [pc, #72]	; (24d4 <setup+0x60>)
    248c:	0031      	movs	r1, r6
    248e:	0028      	movs	r0, r5
    2490:	f000 f90c 	bl	26ac <_ZN5Print5printEPKc>
	delay(1000);
    2494:	20fa      	movs	r0, #250	; 0xfa
    2496:	0080      	lsls	r0, r0, #2
    2498:	f000 f89e 	bl	25d8 <delay>
	SerialUSB.print("test");
    249c:	0031      	movs	r1, r6
    249e:	0028      	movs	r0, r5
    24a0:	f000 f904 	bl	26ac <_ZN5Print5printEPKc>
	delay(1000);
    24a4:	20fa      	movs	r0, #250	; 0xfa
    24a6:	0080      	lsls	r0, r0, #2
    24a8:	f000 f896 	bl	25d8 <delay>
	for (int i=0; i<1023;i++) {
    24ac:	2200      	movs	r2, #0
		USBISO.writebuffer[i]=0xAA;
    24ae:	20aa      	movs	r0, #170	; 0xaa
	for (int i=0; i<1023;i++) {
    24b0:	4b09      	ldr	r3, [pc, #36]	; (24d8 <setup+0x64>)
		USBISO.writebuffer[i]=0xAA;
    24b2:	18a1      	adds	r1, r4, r2
	for (int i=0; i<1023;i++) {
    24b4:	3201      	adds	r2, #1
		USBISO.writebuffer[i]=0xAA;
    24b6:	7408      	strb	r0, [r1, #16]
	for (int i=0; i<1023;i++) {
    24b8:	429a      	cmp	r2, r3
    24ba:	d1fa      	bne.n	24b2 <setup+0x3e>
	}
	USBISO.write(USBISO.writebuffer,1023);
    24bc:	0021      	movs	r1, r4
    24be:	0020      	movs	r0, r4
    24c0:	3110      	adds	r1, #16
    24c2:	f7ff ff3f 	bl	2344 <_ZN7CDCIso_5writeEPKhj>

}
    24c6:	bd70      	pop	{r4, r5, r6, pc}
    24c8:	200000bc 	.word	0x200000bc
    24cc:	00002385 	.word	0x00002385
    24d0:	00004ba8 	.word	0x00004ba8
    24d4:	20000904 	.word	0x20000904
    24d8:	000003ff 	.word	0x000003ff

000024dc <loop>:

void loop() {
	// put your main code here, to run repeatedly:

}
    24dc:	4770      	bx	lr
	...

000024e0 <_GLOBAL__sub_I_USBISO>:
    24e0:	b510      	push	{r4, lr}
CDCIso_ USBISO;
    24e2:	4802      	ldr	r0, [pc, #8]	; (24ec <_GLOBAL__sub_I_USBISO+0xc>)
    24e4:	f7ff fe68 	bl	21b8 <_ZN7CDCIso_C1Ev>
    24e8:	bd10      	pop	{r4, pc}
    24ea:	46c0      	nop			; (mov r8, r8)
    24ec:	200000bc 	.word	0x200000bc

000024f0 <Dummy_Handler>:
    24f0:	be03      	bkpt	0x0003
    24f2:	e7fe      	b.n	24f2 <Dummy_Handler+0x2>

000024f4 <USB_Handler>:
    24f4:	4b03      	ldr	r3, [pc, #12]	; (2504 <USB_Handler+0x10>)
    24f6:	b510      	push	{r4, lr}
    24f8:	681b      	ldr	r3, [r3, #0]
    24fa:	2b00      	cmp	r3, #0
    24fc:	d000      	beq.n	2500 <USB_Handler+0xc>
    24fe:	4798      	blx	r3
    2500:	bd10      	pop	{r4, pc}
    2502:	46c0      	nop			; (mov r8, r8)
    2504:	200008fc 	.word	0x200008fc

00002508 <Reset_Handler>:
    2508:	b570      	push	{r4, r5, r6, lr}
    250a:	490f      	ldr	r1, [pc, #60]	; (2548 <Reset_Handler+0x40>)
    250c:	4c0f      	ldr	r4, [pc, #60]	; (254c <Reset_Handler+0x44>)
    250e:	42a1      	cmp	r1, r4
    2510:	d104      	bne.n	251c <Reset_Handler+0x14>
    2512:	f000 f91d 	bl	2750 <SystemInit>
    2516:	f000 f887 	bl	2628 <main>
    251a:	e7fe      	b.n	251a <Reset_Handler+0x12>
    251c:	4d0c      	ldr	r5, [pc, #48]	; (2550 <Reset_Handler+0x48>)
    251e:	2300      	movs	r3, #0
    2520:	428d      	cmp	r5, r1
    2522:	d0f6      	beq.n	2512 <Reset_Handler+0xa>
    2524:	18ca      	adds	r2, r1, r3
    2526:	18e8      	adds	r0, r5, r3
    2528:	42a2      	cmp	r2, r4
    252a:	d305      	bcc.n	2538 <Reset_Handler+0x30>
    252c:	4290      	cmp	r0, r2
    252e:	d0f0      	beq.n	2512 <Reset_Handler+0xa>
    2530:	4b08      	ldr	r3, [pc, #32]	; (2554 <Reset_Handler+0x4c>)
    2532:	4909      	ldr	r1, [pc, #36]	; (2558 <Reset_Handler+0x50>)
    2534:	2200      	movs	r2, #0
    2536:	e004      	b.n	2542 <Reset_Handler+0x3a>
    2538:	6800      	ldr	r0, [r0, #0]
    253a:	3304      	adds	r3, #4
    253c:	6010      	str	r0, [r2, #0]
    253e:	e7f1      	b.n	2524 <Reset_Handler+0x1c>
    2540:	c304      	stmia	r3!, {r2}
    2542:	428b      	cmp	r3, r1
    2544:	d3fc      	bcc.n	2540 <Reset_Handler+0x38>
    2546:	e7e4      	b.n	2512 <Reset_Handler+0xa>
    2548:	20000000 	.word	0x20000000
    254c:	200000a0 	.word	0x200000a0
    2550:	00004ffc 	.word	0x00004ffc
    2554:	200000a0 	.word	0x200000a0
    2558:	200013c8 	.word	0x200013c8

0000255c <SysTick_Handler>:
    255c:	b510      	push	{r4, lr}
    255e:	f000 f860 	bl	2622 <sysTickHook>
    2562:	2800      	cmp	r0, #0
    2564:	d101      	bne.n	256a <SysTick_Handler+0xe>
    2566:	f000 f851 	bl	260c <SysTick_DefaultHandler>
    256a:	bd10      	pop	{r4, pc}

0000256c <USB_SetHandler>:
    256c:	4b01      	ldr	r3, [pc, #4]	; (2574 <USB_SetHandler+0x8>)
    256e:	6018      	str	r0, [r3, #0]
    2570:	4770      	bx	lr
    2572:	46c0      	nop			; (mov r8, r8)
    2574:	200008fc 	.word	0x200008fc

00002578 <micros>:
    2578:	b5f7      	push	{r0, r1, r2, r4, r5, r6, r7, lr}
    257a:	4813      	ldr	r0, [pc, #76]	; (25c8 <micros+0x50>)
    257c:	2201      	movs	r2, #1
    257e:	4684      	mov	ip, r0
    2580:	4912      	ldr	r1, [pc, #72]	; (25cc <micros+0x54>)
    2582:	4c13      	ldr	r4, [pc, #76]	; (25d0 <micros+0x58>)
    2584:	688e      	ldr	r6, [r1, #8]
    2586:	6863      	ldr	r3, [r4, #4]
    2588:	6805      	ldr	r5, [r0, #0]
    258a:	0e9b      	lsrs	r3, r3, #26
    258c:	4013      	ands	r3, r2
    258e:	9201      	str	r2, [sp, #4]
    2590:	6888      	ldr	r0, [r1, #8]
    2592:	6862      	ldr	r2, [r4, #4]
    2594:	9f01      	ldr	r7, [sp, #4]
    2596:	0e92      	lsrs	r2, r2, #26
    2598:	403a      	ands	r2, r7
    259a:	4667      	mov	r7, ip
    259c:	683f      	ldr	r7, [r7, #0]
    259e:	4293      	cmp	r3, r2
    25a0:	d10e      	bne.n	25c0 <micros+0x48>
    25a2:	42bd      	cmp	r5, r7
    25a4:	d10c      	bne.n	25c0 <micros+0x48>
    25a6:	4286      	cmp	r6, r0
    25a8:	d30a      	bcc.n	25c0 <micros+0x48>
    25aa:	195b      	adds	r3, r3, r5
    25ac:	25fa      	movs	r5, #250	; 0xfa
    25ae:	6848      	ldr	r0, [r1, #4]
    25b0:	00ad      	lsls	r5, r5, #2
    25b2:	1b86      	subs	r6, r0, r6
    25b4:	4807      	ldr	r0, [pc, #28]	; (25d4 <micros+0x5c>)
    25b6:	436b      	muls	r3, r5
    25b8:	4370      	muls	r0, r6
    25ba:	0d00      	lsrs	r0, r0, #20
    25bc:	18c0      	adds	r0, r0, r3
    25be:	bdfe      	pop	{r1, r2, r3, r4, r5, r6, r7, pc}
    25c0:	003d      	movs	r5, r7
    25c2:	0013      	movs	r3, r2
    25c4:	0006      	movs	r6, r0
    25c6:	e7e3      	b.n	2590 <micros+0x18>
    25c8:	20000900 	.word	0x20000900
    25cc:	e000e010 	.word	0xe000e010
    25d0:	e000ed00 	.word	0xe000ed00
    25d4:	00005555 	.word	0x00005555

000025d8 <delay>:
    25d8:	b570      	push	{r4, r5, r6, lr}
    25da:	1e04      	subs	r4, r0, #0
    25dc:	d010      	beq.n	2600 <delay+0x28>
    25de:	f7ff ffcb 	bl	2578 <micros>
    25e2:	0005      	movs	r5, r0
    25e4:	f000 f81c 	bl	2620 <yield>
    25e8:	f7ff ffc6 	bl	2578 <micros>
    25ec:	4b05      	ldr	r3, [pc, #20]	; (2604 <delay+0x2c>)
    25ee:	1b40      	subs	r0, r0, r5
    25f0:	4298      	cmp	r0, r3
    25f2:	d9f7      	bls.n	25e4 <delay+0xc>
    25f4:	23fa      	movs	r3, #250	; 0xfa
    25f6:	3c01      	subs	r4, #1
    25f8:	009b      	lsls	r3, r3, #2
    25fa:	18ed      	adds	r5, r5, r3
    25fc:	2c00      	cmp	r4, #0
    25fe:	d1f3      	bne.n	25e8 <delay+0x10>
    2600:	bd70      	pop	{r4, r5, r6, pc}
    2602:	46c0      	nop			; (mov r8, r8)
    2604:	000003e7 	.word	0x000003e7

00002608 <resetExternalChip>:
    2608:	4770      	bx	lr
	...

0000260c <SysTick_DefaultHandler>:
    260c:	b510      	push	{r4, lr}
    260e:	4a03      	ldr	r2, [pc, #12]	; (261c <SysTick_DefaultHandler+0x10>)
    2610:	6813      	ldr	r3, [r2, #0]
    2612:	3301      	adds	r3, #1
    2614:	6013      	str	r3, [r2, #0]
    2616:	f000 f85f 	bl	26d8 <tickReset>
    261a:	bd10      	pop	{r4, pc}
    261c:	20000900 	.word	0x20000900

00002620 <yield>:
    2620:	4770      	bx	lr

00002622 <sysTickHook>:
    2622:	2000      	movs	r0, #0
    2624:	4770      	bx	lr
	...

00002628 <main>:
    2628:	b510      	push	{r4, lr}
    262a:	f001 fb81 	bl	3d30 <init>
    262e:	f002 f985 	bl	493c <__libc_init_array>
    2632:	f001 fcfd 	bl	4030 <_Z11initVariantv>
    2636:	2001      	movs	r0, #1
    2638:	f7ff ffce 	bl	25d8 <delay>
    263c:	4c08      	ldr	r4, [pc, #32]	; (2660 <main+0x38>)
    263e:	0020      	movs	r0, r4
    2640:	f000 fe24 	bl	328c <_ZN14USBDeviceClass4initEv>
    2644:	0020      	movs	r0, r4
    2646:	f000 febb 	bl	33c0 <_ZN14USBDeviceClass6attachEv>
    264a:	f7ff ff13 	bl	2474 <setup>
    264e:	f7ff ff45 	bl	24dc <loop>
    2652:	4b04      	ldr	r3, [pc, #16]	; (2664 <main+0x3c>)
    2654:	2b00      	cmp	r3, #0
    2656:	d0fa      	beq.n	264e <main+0x26>
    2658:	e000      	b.n	265c <main+0x34>
    265a:	bf00      	nop
    265c:	e7f7      	b.n	264e <main+0x26>
    265e:	46c0      	nop			; (mov r8, r8)
    2660:	2000096c 	.word	0x2000096c
    2664:	00000000 	.word	0x00000000

00002668 <_ZN5Print5writeEPKhj>:
    2668:	b5f7      	push	{r0, r1, r2, r4, r5, r6, r7, lr}
    266a:	0006      	movs	r6, r0
    266c:	000d      	movs	r5, r1
    266e:	000c      	movs	r4, r1
    2670:	188b      	adds	r3, r1, r2
    2672:	9301      	str	r3, [sp, #4]
    2674:	9b01      	ldr	r3, [sp, #4]
    2676:	1b67      	subs	r7, r4, r5
    2678:	429c      	cmp	r4, r3
    267a:	d007      	beq.n	268c <_ZN5Print5writeEPKhj+0x24>
    267c:	6833      	ldr	r3, [r6, #0]
    267e:	7821      	ldrb	r1, [r4, #0]
    2680:	681b      	ldr	r3, [r3, #0]
    2682:	0030      	movs	r0, r6
    2684:	4798      	blx	r3
    2686:	3401      	adds	r4, #1
    2688:	2800      	cmp	r0, #0
    268a:	d1f3      	bne.n	2674 <_ZN5Print5writeEPKhj+0xc>
    268c:	0038      	movs	r0, r7
    268e:	bdfe      	pop	{r1, r2, r3, r4, r5, r6, r7, pc}

00002690 <_ZN5Print5writeEPKc>:
    2690:	b570      	push	{r4, r5, r6, lr}
    2692:	0005      	movs	r5, r0
    2694:	000c      	movs	r4, r1
    2696:	1e08      	subs	r0, r1, #0
    2698:	d007      	beq.n	26aa <_ZN5Print5writeEPKc+0x1a>
    269a:	f002 fa53 	bl	4b44 <strlen>
    269e:	682b      	ldr	r3, [r5, #0]
    26a0:	0002      	movs	r2, r0
    26a2:	685b      	ldr	r3, [r3, #4]
    26a4:	0021      	movs	r1, r4
    26a6:	0028      	movs	r0, r5
    26a8:	4798      	blx	r3
    26aa:	bd70      	pop	{r4, r5, r6, pc}

000026ac <_ZN5Print5printEPKc>:
    26ac:	b510      	push	{r4, lr}
    26ae:	f7ff ffef 	bl	2690 <_ZN5Print5writeEPKc>
    26b2:	bd10      	pop	{r4, pc}

000026b4 <initiateReset>:
    26b4:	b510      	push	{r4, lr}
    26b6:	0004      	movs	r4, r0
    26b8:	f7ff ffa6 	bl	2608 <resetExternalChip>
    26bc:	4b01      	ldr	r3, [pc, #4]	; (26c4 <initiateReset+0x10>)
    26be:	601c      	str	r4, [r3, #0]
    26c0:	bd10      	pop	{r4, pc}
    26c2:	46c0      	nop			; (mov r8, r8)
    26c4:	20000000 	.word	0x20000000

000026c8 <cancelReset>:
    26c8:	2201      	movs	r2, #1
    26ca:	4b02      	ldr	r3, [pc, #8]	; (26d4 <cancelReset+0xc>)
    26cc:	4252      	negs	r2, r2
    26ce:	601a      	str	r2, [r3, #0]
    26d0:	4770      	bx	lr
    26d2:	46c0      	nop			; (mov r8, r8)
    26d4:	20000000 	.word	0x20000000

000026d8 <tickReset>:
    26d8:	4a16      	ldr	r2, [pc, #88]	; (2734 <tickReset+0x5c>)
    26da:	b510      	push	{r4, lr}
    26dc:	6813      	ldr	r3, [r2, #0]
    26de:	1c59      	adds	r1, r3, #1
    26e0:	d027      	beq.n	2732 <tickReset+0x5a>
    26e2:	3b01      	subs	r3, #1
    26e4:	6013      	str	r3, [r2, #0]
    26e6:	2b00      	cmp	r3, #0
    26e8:	d123      	bne.n	2732 <tickReset+0x5a>
  \details Disables IRQ interrupts by setting the I-bit in the CPSR.
           Can only be executed in Privileged modes.
 */
__STATIC_FORCEINLINE void __disable_irq(void)
{
  __ASM volatile ("cpsid i" : : : "memory");
    26ea:	b672      	cpsid	i
    26ec:	4b12      	ldr	r3, [pc, #72]	; (2738 <tickReset+0x60>)
    26ee:	4a13      	ldr	r2, [pc, #76]	; (273c <tickReset+0x64>)
    26f0:	3304      	adds	r3, #4
    26f2:	4293      	cmp	r3, r2
    26f4:	d808      	bhi.n	2708 <tickReset+0x30>
  \details Acts as a special kind of Data Memory Barrier.
           It completes when all explicit memory accesses before this instruction complete.
 */
__STATIC_FORCEINLINE void __DSB(void)
{
  __ASM volatile ("dsb 0xF":::"memory");
    26f6:	f3bf 8f4f 	dsb	sy
 */
__NO_RETURN __STATIC_INLINE void __NVIC_SystemReset(void)
{
  __DSB();                                                          /* Ensure all outstanding memory accesses included
                                                                       buffered write are completed before reset */
  SCB->AIRCR  = ((0x5FAUL << SCB_AIRCR_VECTKEY_Pos) |
    26fa:	4a11      	ldr	r2, [pc, #68]	; (2740 <tickReset+0x68>)
    26fc:	4b11      	ldr	r3, [pc, #68]	; (2744 <tickReset+0x6c>)
    26fe:	60da      	str	r2, [r3, #12]
    2700:	f3bf 8f4f 	dsb	sy
                 SCB_AIRCR_SYSRESETREQ_Msk);
  __DSB();                                                          /* Ensure completion of memory access */

  for(;;)                                                           /* wait until reset */
  {
    __NOP();
    2704:	46c0      	nop			; (mov r8, r8)
    2706:	e7fd      	b.n	2704 <tickReset+0x2c>
    2708:	4a0f      	ldr	r2, [pc, #60]	; (2748 <tickReset+0x70>)
    270a:	2101      	movs	r1, #1
    270c:	0010      	movs	r0, r2
    270e:	7d14      	ldrb	r4, [r2, #20]
    2710:	420c      	tst	r4, r1
    2712:	d0fc      	beq.n	270e <tickReset+0x36>
    2714:	2120      	movs	r1, #32
    2716:	8b14      	ldrh	r4, [r2, #24]
    2718:	31ff      	adds	r1, #255	; 0xff
    271a:	089b      	lsrs	r3, r3, #2
    271c:	005b      	lsls	r3, r3, #1
    271e:	4321      	orrs	r1, r4
    2720:	8311      	strh	r1, [r2, #24]
    2722:	61d3      	str	r3, [r2, #28]
    2724:	4b09      	ldr	r3, [pc, #36]	; (274c <tickReset+0x74>)
    2726:	8013      	strh	r3, [r2, #0]
    2728:	2301      	movs	r3, #1
    272a:	7d02      	ldrb	r2, [r0, #20]
    272c:	421a      	tst	r2, r3
    272e:	d0fc      	beq.n	272a <tickReset+0x52>
    2730:	e7e1      	b.n	26f6 <tickReset+0x1e>
    2732:	bd10      	pop	{r4, pc}
    2734:	20000000 	.word	0x20000000
    2738:	00002000 	.word	0x00002000
    273c:	00000203 	.word	0x00000203
    2740:	05fa0004 	.word	0x05fa0004
    2744:	e000ed00 	.word	0xe000ed00
    2748:	41004000 	.word	0x41004000
    274c:	ffffa502 	.word	0xffffa502

00002750 <SystemInit>:
    2750:	221e      	movs	r2, #30
    2752:	b570      	push	{r4, r5, r6, lr}
    2754:	4846      	ldr	r0, [pc, #280]	; (2870 <SystemInit+0x120>)
    2756:	4947      	ldr	r1, [pc, #284]	; (2874 <SystemInit+0x124>)
    2758:	6843      	ldr	r3, [r0, #4]
    275a:	4393      	bics	r3, r2
    275c:	3a1c      	subs	r2, #28
    275e:	4313      	orrs	r3, r2
    2760:	6043      	str	r3, [r0, #4]
    2762:	2308      	movs	r3, #8
    2764:	698c      	ldr	r4, [r1, #24]
    2766:	4323      	orrs	r3, r4
    2768:	618b      	str	r3, [r1, #24]
    276a:	4c43      	ldr	r4, [pc, #268]	; (2878 <SystemInit+0x128>)
    276c:	4b43      	ldr	r3, [pc, #268]	; (287c <SystemInit+0x12c>)
    276e:	829c      	strh	r4, [r3, #20]
    2770:	8a9c      	ldrh	r4, [r3, #20]
    2772:	4314      	orrs	r4, r2
    2774:	829c      	strh	r4, [r3, #20]
    2776:	68dc      	ldr	r4, [r3, #12]
    2778:	4214      	tst	r4, r2
    277a:	d0fc      	beq.n	2776 <SystemInit+0x26>
    277c:	2401      	movs	r4, #1
    277e:	4a40      	ldr	r2, [pc, #256]	; (2880 <SystemInit+0x130>)
    2780:	7014      	strb	r4, [r2, #0]
    2782:	7815      	ldrb	r5, [r2, #0]
    2784:	4225      	tst	r5, r4
    2786:	d003      	beq.n	2790 <SystemInit+0x40>
    2788:	7855      	ldrb	r5, [r2, #1]
    278a:	b26d      	sxtb	r5, r5
    278c:	2d00      	cmp	r5, #0
    278e:	dbf8      	blt.n	2782 <SystemInit+0x32>
    2790:	2401      	movs	r4, #1
    2792:	6094      	str	r4, [r2, #8]
    2794:	7854      	ldrb	r4, [r2, #1]
    2796:	b264      	sxtb	r4, r4
    2798:	2c00      	cmp	r4, #0
    279a:	dbfb      	blt.n	2794 <SystemInit+0x44>
    279c:	4c39      	ldr	r4, [pc, #228]	; (2884 <SystemInit+0x134>)
    279e:	6054      	str	r4, [r2, #4]
    27a0:	7854      	ldrb	r4, [r2, #1]
    27a2:	b264      	sxtb	r4, r4
    27a4:	2c00      	cmp	r4, #0
    27a6:	dbfb      	blt.n	27a0 <SystemInit+0x50>
    27a8:	2482      	movs	r4, #130	; 0x82
    27aa:	01e4      	lsls	r4, r4, #7
    27ac:	8054      	strh	r4, [r2, #2]
    27ae:	7854      	ldrb	r4, [r2, #1]
    27b0:	b264      	sxtb	r4, r4
    27b2:	2c00      	cmp	r4, #0
    27b4:	dbfb      	blt.n	27ae <SystemInit+0x5e>
    27b6:	2402      	movs	r4, #2
    27b8:	849c      	strh	r4, [r3, #36]	; 0x24
    27ba:	340e      	adds	r4, #14
    27bc:	68dd      	ldr	r5, [r3, #12]
    27be:	4225      	tst	r5, r4
    27c0:	d0fc      	beq.n	27bc <SystemInit+0x6c>
    27c2:	4c31      	ldr	r4, [pc, #196]	; (2888 <SystemInit+0x138>)
    27c4:	62dc      	str	r4, [r3, #44]	; 0x2c
    27c6:	2410      	movs	r4, #16
    27c8:	68dd      	ldr	r5, [r3, #12]
    27ca:	4225      	tst	r5, r4
    27cc:	d0fc      	beq.n	27c8 <SystemInit+0x78>
    27ce:	8c9d      	ldrh	r5, [r3, #36]	; 0x24
    27d0:	4c2e      	ldr	r4, [pc, #184]	; (288c <SystemInit+0x13c>)
    27d2:	432c      	orrs	r4, r5
    27d4:	849c      	strh	r4, [r3, #36]	; 0x24
    27d6:	2410      	movs	r4, #16
    27d8:	68dd      	ldr	r5, [r3, #12]
    27da:	4225      	tst	r5, r4
    27dc:	d0fc      	beq.n	27d8 <SystemInit+0x88>
    27de:	2402      	movs	r4, #2
    27e0:	8c9d      	ldrh	r5, [r3, #36]	; 0x24
    27e2:	2680      	movs	r6, #128	; 0x80
    27e4:	432c      	orrs	r4, r5
    27e6:	849c      	strh	r4, [r3, #36]	; 0x24
    27e8:	2440      	movs	r4, #64	; 0x40
    27ea:	68dd      	ldr	r5, [r3, #12]
    27ec:	4235      	tst	r5, r6
    27ee:	d0fc      	beq.n	27ea <SystemInit+0x9a>
    27f0:	68dd      	ldr	r5, [r3, #12]
    27f2:	4225      	tst	r5, r4
    27f4:	d0f9      	beq.n	27ea <SystemInit+0x9a>
    27f6:	2410      	movs	r4, #16
    27f8:	68dd      	ldr	r5, [r3, #12]
    27fa:	4225      	tst	r5, r4
    27fc:	d0fc      	beq.n	27f8 <SystemInit+0xa8>
    27fe:	2400      	movs	r4, #0
    2800:	6094      	str	r4, [r2, #8]
    2802:	7854      	ldrb	r4, [r2, #1]
    2804:	b264      	sxtb	r4, r4
    2806:	2c00      	cmp	r4, #0
    2808:	dbfb      	blt.n	2802 <SystemInit+0xb2>
    280a:	4c21      	ldr	r4, [pc, #132]	; (2890 <SystemInit+0x140>)
    280c:	6054      	str	r4, [r2, #4]
    280e:	7854      	ldrb	r4, [r2, #1]
    2810:	b264      	sxtb	r4, r4
    2812:	2c00      	cmp	r4, #0
    2814:	dbfb      	blt.n	280e <SystemInit+0xbe>
    2816:	6a1c      	ldr	r4, [r3, #32]
    2818:	4d1e      	ldr	r5, [pc, #120]	; (2894 <SystemInit+0x144>)
    281a:	402c      	ands	r4, r5
    281c:	2580      	movs	r5, #128	; 0x80
    281e:	621c      	str	r4, [r3, #32]
    2820:	6a1c      	ldr	r4, [r3, #32]
    2822:	43ac      	bics	r4, r5
    2824:	621c      	str	r4, [r3, #32]
    2826:	2303      	movs	r3, #3
    2828:	6093      	str	r3, [r2, #8]
    282a:	4b1b      	ldr	r3, [pc, #108]	; (2898 <SystemInit+0x148>)
    282c:	6053      	str	r3, [r2, #4]
    282e:	7853      	ldrb	r3, [r2, #1]
    2830:	b25b      	sxtb	r3, r3
    2832:	2b00      	cmp	r3, #0
    2834:	dbfb      	blt.n	282e <SystemInit+0xde>
    2836:	2300      	movs	r3, #0
    2838:	24ff      	movs	r4, #255	; 0xff
    283a:	720b      	strb	r3, [r1, #8]
    283c:	4a17      	ldr	r2, [pc, #92]	; (289c <SystemInit+0x14c>)
    283e:	724b      	strb	r3, [r1, #9]
    2840:	728b      	strb	r3, [r1, #10]
    2842:	72cb      	strb	r3, [r1, #11]
    2844:	4b16      	ldr	r3, [pc, #88]	; (28a0 <SystemInit+0x150>)
    2846:	601a      	str	r2, [r3, #0]
    2848:	4b16      	ldr	r3, [pc, #88]	; (28a4 <SystemInit+0x154>)
    284a:	4a17      	ldr	r2, [pc, #92]	; (28a8 <SystemInit+0x158>)
    284c:	681b      	ldr	r3, [r3, #0]
    284e:	6811      	ldr	r1, [r2, #0]
    2850:	069a      	lsls	r2, r3, #26
    2852:	015b      	lsls	r3, r3, #5
    2854:	0ec9      	lsrs	r1, r1, #27
    2856:	4023      	ands	r3, r4
    2858:	0f52      	lsrs	r2, r2, #29
    285a:	0212      	lsls	r2, r2, #8
    285c:	430b      	orrs	r3, r1
    285e:	4313      	orrs	r3, r2
    2860:	4a12      	ldr	r2, [pc, #72]	; (28ac <SystemInit+0x15c>)
    2862:	8513      	strh	r3, [r2, #40]	; 0x28
    2864:	2380      	movs	r3, #128	; 0x80
    2866:	6842      	ldr	r2, [r0, #4]
    2868:	4313      	orrs	r3, r2
    286a:	6043      	str	r3, [r0, #4]
    286c:	bd70      	pop	{r4, r5, r6, pc}
    286e:	46c0      	nop			; (mov r8, r8)
    2870:	41004000 	.word	0x41004000
    2874:	40000400 	.word	0x40000400
    2878:	0000060c 	.word	0x0000060c
    287c:	40000800 	.word	0x40000800
    2880:	40000c00 	.word	0x40000c00
    2884:	00010501 	.word	0x00010501
    2888:	7dff05b9 	.word	0x7dff05b9
    288c:	00000a04 	.word	0x00000a04
    2890:	00030700 	.word	0x00030700
    2894:	fffffcff 	.word	0xfffffcff
    2898:	00010603 	.word	0x00010603
    289c:	02dc6c00 	.word	0x02dc6c00
    28a0:	20000014 	.word	0x20000014
    28a4:	00806024 	.word	0x00806024
    28a8:	00806020 	.word	0x00806020
    28ac:	42004000 	.word	0x42004000

000028b0 <_ZN7Serial_13getDescriptorER8USBSetup>:
    28b0:	2000      	movs	r0, #0
    28b2:	4770      	bx	lr

000028b4 <_ZThn16_N7Serial_13getDescriptorER8USBSetup>:
    28b4:	b408      	push	{r3}
    28b6:	4b02      	ldr	r3, [pc, #8]	; (28c0 <_ZThn16_N7Serial_13getDescriptorER8USBSetup+0xc>)
    28b8:	469c      	mov	ip, r3
    28ba:	3810      	subs	r0, #16
    28bc:	bc08      	pop	{r3}
    28be:	4760      	bx	ip
    28c0:	000028b1 	.word	0x000028b1

000028c4 <_ZL5utox8mPc>:
    28c4:	b530      	push	{r4, r5, lr}
    28c6:	250f      	movs	r5, #15
    28c8:	1dcb      	adds	r3, r1, #7
    28ca:	3901      	subs	r1, #1
    28cc:	0002      	movs	r2, r0
    28ce:	402a      	ands	r2, r5
    28d0:	0014      	movs	r4, r2
    28d2:	0900      	lsrs	r0, r0, #4
    28d4:	3430      	adds	r4, #48	; 0x30
    28d6:	2a09      	cmp	r2, #9
    28d8:	dd01      	ble.n	28de <_ZL5utox8mPc+0x1a>
    28da:	3237      	adds	r2, #55	; 0x37
    28dc:	0014      	movs	r4, r2
    28de:	701c      	strb	r4, [r3, #0]
    28e0:	3b01      	subs	r3, #1
    28e2:	428b      	cmp	r3, r1
    28e4:	d1f2      	bne.n	28cc <_ZL5utox8mPc+0x8>
    28e6:	bd30      	pop	{r4, r5, pc}

000028e8 <_ZN7Serial_12getShortNameEPc>:
    28e8:	b510      	push	{r4, lr}
    28ea:	000c      	movs	r4, r1
    28ec:	4b0b      	ldr	r3, [pc, #44]	; (291c <_ZN7Serial_12getShortNameEPc+0x34>)
    28ee:	6818      	ldr	r0, [r3, #0]
    28f0:	f7ff ffe8 	bl	28c4 <_ZL5utox8mPc>
    28f4:	0021      	movs	r1, r4
    28f6:	4b0a      	ldr	r3, [pc, #40]	; (2920 <_ZN7Serial_12getShortNameEPc+0x38>)
    28f8:	3108      	adds	r1, #8
    28fa:	6818      	ldr	r0, [r3, #0]
    28fc:	f7ff ffe2 	bl	28c4 <_ZL5utox8mPc>
    2900:	0021      	movs	r1, r4
    2902:	4b08      	ldr	r3, [pc, #32]	; (2924 <_ZN7Serial_12getShortNameEPc+0x3c>)
    2904:	3110      	adds	r1, #16
    2906:	6818      	ldr	r0, [r3, #0]
    2908:	f7ff ffdc 	bl	28c4 <_ZL5utox8mPc>
    290c:	0021      	movs	r1, r4
    290e:	4b06      	ldr	r3, [pc, #24]	; (2928 <_ZN7Serial_12getShortNameEPc+0x40>)
    2910:	3118      	adds	r1, #24
    2912:	6818      	ldr	r0, [r3, #0]
    2914:	f7ff ffd6 	bl	28c4 <_ZL5utox8mPc>
    2918:	2020      	movs	r0, #32
    291a:	bd10      	pop	{r4, pc}
    291c:	0080a00c 	.word	0x0080a00c
    2920:	0080a040 	.word	0x0080a040
    2924:	0080a044 	.word	0x0080a044
    2928:	0080a048 	.word	0x0080a048

0000292c <_ZThn16_N7Serial_12getShortNameEPc>:
    292c:	b408      	push	{r3}
    292e:	4b02      	ldr	r3, [pc, #8]	; (2938 <_ZThn16_N7Serial_12getShortNameEPc+0xc>)
    2930:	469c      	mov	ip, r3
    2932:	3810      	subs	r0, #16
    2934:	bc08      	pop	{r3}
    2936:	4760      	bx	ip
    2938:	000028e9 	.word	0x000028e9

0000293c <_ZN7Serial_14handleEndpointEi>:
    293c:	4770      	bx	lr
	...

00002940 <_ZThn16_N7Serial_14handleEndpointEi>:
    2940:	b408      	push	{r3}
    2942:	4b02      	ldr	r3, [pc, #8]	; (294c <_ZThn16_N7Serial_14handleEndpointEi+0xc>)
    2944:	469c      	mov	ip, r3
    2946:	3810      	subs	r0, #16
    2948:	bc08      	pop	{r3}
    294a:	4760      	bx	ip
    294c:	0000293d 	.word	0x0000293d

00002950 <_ZN7Serial_17availableForWriteEv>:
    2950:	203f      	movs	r0, #63	; 0x3f
    2952:	4770      	bx	lr

00002954 <_ZN7Serial_5writeEh>:
    2954:	b513      	push	{r0, r1, r4, lr}
    2956:	466b      	mov	r3, sp
    2958:	6802      	ldr	r2, [r0, #0]
    295a:	71d9      	strb	r1, [r3, #7]
    295c:	3307      	adds	r3, #7
    295e:	6854      	ldr	r4, [r2, #4]
    2960:	0019      	movs	r1, r3
    2962:	2201      	movs	r2, #1
    2964:	47a0      	blx	r4
    2966:	bd16      	pop	{r1, r2, r4, pc}

00002968 <_ZN7Serial_12getInterfaceEPh>:
    2968:	b5f0      	push	{r4, r5, r6, r7, lr}
    296a:	780b      	ldrb	r3, [r1, #0]
    296c:	b095      	sub	sp, #84	; 0x54
    296e:	ac03      	add	r4, sp, #12
    2970:	3302      	adds	r3, #2
    2972:	9001      	str	r0, [sp, #4]
    2974:	700b      	strb	r3, [r1, #0]
    2976:	2242      	movs	r2, #66	; 0x42
    2978:	2100      	movs	r1, #0
    297a:	0020      	movs	r0, r4
    297c:	f002 f81f 	bl	49be <memset>
    2980:	2209      	movs	r2, #9
    2982:	2504      	movs	r5, #4
    2984:	7222      	strb	r2, [r4, #8]
    2986:	2204      	movs	r2, #4
    2988:	75a5      	strb	r5, [r4, #22]
    298a:	7262      	strb	r2, [r4, #9]
    298c:	2506      	movs	r5, #6
    298e:	2205      	movs	r2, #5
    2990:	2024      	movs	r0, #36	; 0x24
    2992:	ae02      	add	r6, sp, #8
    2994:	7665      	strb	r5, [r4, #25]
    2996:	7725      	strb	r5, [r4, #28]
    2998:	1995      	adds	r5, r2, r6
    299a:	74a0      	strb	r0, [r4, #18]
    299c:	75e0      	strb	r0, [r4, #23]
    299e:	76e0      	strb	r0, [r4, #27]
    29a0:	77e8      	strb	r0, [r5, #31]
    29a2:	0030      	movs	r0, r6
    29a4:	2101      	movs	r1, #1
    29a6:	3006      	adds	r0, #6
    29a8:	77c1      	strb	r1, [r0, #31]
    29aa:	0030      	movs	r0, r6
    29ac:	3007      	adds	r0, #7
    29ae:	77c1      	strb	r1, [r0, #31]
    29b0:	a804      	add	r0, sp, #16
    29b2:	77c1      	strb	r1, [r0, #31]
    29b4:	2009      	movs	r0, #9
    29b6:	7321      	strb	r1, [r4, #12]
    29b8:	7561      	strb	r1, [r4, #21]
    29ba:	1980      	adds	r0, r0, r6
    29bc:	3106      	adds	r1, #6
    29be:	77c1      	strb	r1, [r0, #31]
    29c0:	200a      	movs	r0, #10
    29c2:	1980      	adds	r0, r0, r6
    29c4:	77c2      	strb	r2, [r0, #31]
    29c6:	2003      	movs	r0, #3
    29c8:	4684      	mov	ip, r0
    29ca:	4665      	mov	r5, ip
    29cc:	a805      	add	r0, sp, #20
    29ce:	77c5      	strb	r5, [r0, #31]
    29d0:	202e      	movs	r0, #46	; 0x2e
    29d2:	2710      	movs	r7, #16
    29d4:	1980      	adds	r0, r0, r6
    29d6:	7007      	strb	r7, [r0, #0]
    29d8:	202f      	movs	r0, #47	; 0x2f
    29da:	2509      	movs	r5, #9
    29dc:	2308      	movs	r3, #8
    29de:	1980      	adds	r0, r0, r6
    29e0:	7005      	strb	r5, [r0, #0]
    29e2:	2504      	movs	r5, #4
    29e4:	7023      	strb	r3, [r4, #0]
    29e6:	3303      	adds	r3, #3
    29e8:	7063      	strb	r3, [r4, #1]
    29ea:	a80e      	add	r0, sp, #56	; 0x38
    29ec:	3b09      	subs	r3, #9
    29ee:	70e3      	strb	r3, [r4, #3]
    29f0:	7123      	strb	r3, [r4, #4]
    29f2:	7163      	strb	r3, [r4, #5]
    29f4:	7363      	strb	r3, [r4, #13]
    29f6:	73a3      	strb	r3, [r4, #14]
    29f8:	7462      	strb	r2, [r4, #17]
    29fa:	7623      	strb	r3, [r4, #24]
    29fc:	76a2      	strb	r2, [r4, #26]
    29fe:	77e2      	strb	r2, [r4, #31]
    2a00:	7527      	strb	r7, [r4, #20]
    2a02:	8527      	strh	r7, [r4, #40]	; 0x28
    2a04:	7005      	strb	r5, [r0, #0]
    2a06:	2033      	movs	r0, #51	; 0x33
    2a08:	0035      	movs	r5, r6
    2a0a:	1980      	adds	r0, r0, r6
    2a0c:	260a      	movs	r6, #10
    2a0e:	7003      	strb	r3, [r0, #0]
    2a10:	a80f      	add	r0, sp, #60	; 0x3c
    2a12:	7006      	strb	r6, [r0, #0]
    2a14:	a810      	add	r0, sp, #64	; 0x40
    2a16:	7001      	strb	r1, [r0, #0]
    2a18:	2039      	movs	r0, #57	; 0x39
    2a1a:	1940      	adds	r0, r0, r5
    2a1c:	7002      	strb	r2, [r0, #0]
    2a1e:	203b      	movs	r0, #59	; 0x3b
    2a20:	3635      	adds	r6, #53	; 0x35
    2a22:	1976      	adds	r6, r6, r5
    2a24:	7031      	strb	r1, [r6, #0]
    2a26:	a912      	add	r1, sp, #72	; 0x48
    2a28:	700a      	strb	r2, [r1, #0]
    2a2a:	2180      	movs	r1, #128	; 0x80
    2a2c:	323d      	adds	r2, #61	; 0x3d
    2a2e:	1940      	adds	r0, r0, r5
    2a30:	1952      	adds	r2, r2, r5
    2a32:	7003      	strb	r3, [r0, #0]
    2a34:	7013      	strb	r3, [r2, #0]
    2a36:	2040      	movs	r0, #64	; 0x40
    2a38:	2200      	movs	r2, #0
    2a3a:	4249      	negs	r1, r1
    2a3c:	000e      	movs	r6, r1
    2a3e:	3341      	adds	r3, #65	; 0x41
    2a40:	195b      	adds	r3, r3, r5
    2a42:	7018      	strb	r0, [r3, #0]
    2a44:	705a      	strb	r2, [r3, #1]
    2a46:	9b01      	ldr	r3, [sp, #4]
    2a48:	8720      	strh	r0, [r4, #56]	; 0x38
    2a4a:	7d1b      	ldrb	r3, [r3, #20]
    2a4c:	9a01      	ldr	r2, [sp, #4]
    2a4e:	70a3      	strb	r3, [r4, #2]
    2a50:	72a3      	strb	r3, [r4, #10]
    2a52:	7763      	strb	r3, [r4, #29]
    2a54:	3301      	adds	r3, #1
    2a56:	b2db      	uxtb	r3, r3
    2a58:	77a3      	strb	r3, [r4, #30]
    2a5a:	7d52      	ldrb	r2, [r2, #21]
    2a5c:	3835      	subs	r0, #53	; 0x35
    2a5e:	4316      	orrs	r6, r2
    2a60:	1940      	adds	r0, r0, r5
    2a62:	77c6      	strb	r6, [r0, #31]
    2a64:	2031      	movs	r0, #49	; 0x31
    2a66:	1940      	adds	r0, r0, r5
    2a68:	7003      	strb	r3, [r0, #0]
    2a6a:	233a      	movs	r3, #58	; 0x3a
    2a6c:	1c50      	adds	r0, r2, #1
    2a6e:	195b      	adds	r3, r3, r5
    2a70:	7018      	strb	r0, [r3, #0]
    2a72:	2341      	movs	r3, #65	; 0x41
    2a74:	3202      	adds	r2, #2
    2a76:	430a      	orrs	r2, r1
    2a78:	195b      	adds	r3, r3, r5
    2a7a:	701a      	strb	r2, [r3, #0]
    2a7c:	0021      	movs	r1, r4
    2a7e:	2242      	movs	r2, #66	; 0x42
    2a80:	4802      	ldr	r0, [pc, #8]	; (2a8c <_ZN7Serial_12getInterfaceEPh+0x124>)
    2a82:	f000 ff25 	bl	38d0 <_ZN14USBDeviceClass11sendControlEPKvm>
    2a86:	b015      	add	sp, #84	; 0x54
    2a88:	bdf0      	pop	{r4, r5, r6, r7, pc}
    2a8a:	46c0      	nop			; (mov r8, r8)
    2a8c:	2000096c 	.word	0x2000096c

00002a90 <_ZThn16_N7Serial_12getInterfaceEPh>:
    2a90:	b408      	push	{r3}
    2a92:	4b02      	ldr	r3, [pc, #8]	; (2a9c <_ZThn16_N7Serial_12getInterfaceEPh+0xc>)
    2a94:	469c      	mov	ip, r3
    2a96:	3810      	subs	r0, #16
    2a98:	bc08      	pop	{r3}
    2a9a:	4760      	bx	ip
    2a9c:	00002969 	.word	0x00002969

00002aa0 <_ZN7Serial_5setupER8USBSetup>:
    2aa0:	b570      	push	{r4, r5, r6, lr}
    2aa2:	790a      	ldrb	r2, [r1, #4]
    2aa4:	7d03      	ldrb	r3, [r0, #20]
    2aa6:	000c      	movs	r4, r1
    2aa8:	2500      	movs	r5, #0
    2aaa:	429a      	cmp	r2, r3
    2aac:	d10b      	bne.n	2ac6 <_ZN7Serial_5setupER8USBSetup+0x26>
    2aae:	780b      	ldrb	r3, [r1, #0]
    2ab0:	784e      	ldrb	r6, [r1, #1]
    2ab2:	2ba1      	cmp	r3, #161	; 0xa1
    2ab4:	d109      	bne.n	2aca <_ZN7Serial_5setupER8USBSetup+0x2a>
    2ab6:	2e21      	cmp	r6, #33	; 0x21
    2ab8:	d105      	bne.n	2ac6 <_ZN7Serial_5setupER8USBSetup+0x26>
    2aba:	2207      	movs	r2, #7
    2abc:	491f      	ldr	r1, [pc, #124]	; (2b3c <_ZN7Serial_5setupER8USBSetup+0x9c>)
    2abe:	4820      	ldr	r0, [pc, #128]	; (2b40 <_ZN7Serial_5setupER8USBSetup+0xa0>)
    2ac0:	f000 ff06 	bl	38d0 <_ZN14USBDeviceClass11sendControlEPKvm>
    2ac4:	3501      	adds	r5, #1
    2ac6:	0028      	movs	r0, r5
    2ac8:	bd70      	pop	{r4, r5, r6, pc}
    2aca:	2b21      	cmp	r3, #33	; 0x21
    2acc:	d1fb      	bne.n	2ac6 <_ZN7Serial_5setupER8USBSetup+0x26>
    2ace:	2e20      	cmp	r6, #32
    2ad0:	d119      	bne.n	2b06 <_ZN7Serial_5setupER8USBSetup+0x66>
    2ad2:	2207      	movs	r2, #7
    2ad4:	4919      	ldr	r1, [pc, #100]	; (2b3c <_ZN7Serial_5setupER8USBSetup+0x9c>)
    2ad6:	481a      	ldr	r0, [pc, #104]	; (2b40 <_ZN7Serial_5setupER8USBSetup+0xa0>)
    2ad8:	f000 fe3c 	bl	3754 <_ZN14USBDeviceClass11recvControlEPvm>
    2adc:	4b17      	ldr	r3, [pc, #92]	; (2b3c <_ZN7Serial_5setupER8USBSetup+0x9c>)
    2ade:	781a      	ldrb	r2, [r3, #0]
    2ae0:	7859      	ldrb	r1, [r3, #1]
    2ae2:	0209      	lsls	r1, r1, #8
    2ae4:	4311      	orrs	r1, r2
    2ae6:	789a      	ldrb	r2, [r3, #2]
    2ae8:	0412      	lsls	r2, r2, #16
    2aea:	4311      	orrs	r1, r2
    2aec:	78da      	ldrb	r2, [r3, #3]
    2aee:	0612      	lsls	r2, r2, #24
    2af0:	430a      	orrs	r2, r1
    2af2:	2196      	movs	r1, #150	; 0x96
    2af4:	00c9      	lsls	r1, r1, #3
    2af6:	428a      	cmp	r2, r1
    2af8:	d102      	bne.n	2b00 <_ZN7Serial_5setupER8USBSetup+0x60>
    2afa:	79db      	ldrb	r3, [r3, #7]
    2afc:	07db      	lsls	r3, r3, #31
    2afe:	d508      	bpl.n	2b12 <_ZN7Serial_5setupER8USBSetup+0x72>
    2b00:	f7ff fde2 	bl	26c8 <cancelReset>
    2b04:	e008      	b.n	2b18 <_ZN7Serial_5setupER8USBSetup+0x78>
    2b06:	2e22      	cmp	r6, #34	; 0x22
    2b08:	d10a      	bne.n	2b20 <_ZN7Serial_5setupER8USBSetup+0x80>
    2b0a:	788a      	ldrb	r2, [r1, #2]
    2b0c:	4b0b      	ldr	r3, [pc, #44]	; (2b3c <_ZN7Serial_5setupER8USBSetup+0x9c>)
    2b0e:	71da      	strb	r2, [r3, #7]
    2b10:	e7e4      	b.n	2adc <_ZN7Serial_5setupER8USBSetup+0x3c>
    2b12:	20fa      	movs	r0, #250	; 0xfa
    2b14:	f7ff fdce 	bl	26b4 <initiateReset>
    2b18:	2100      	movs	r1, #0
    2b1a:	4809      	ldr	r0, [pc, #36]	; (2b40 <_ZN7Serial_5setupER8USBSetup+0xa0>)
    2b1c:	f000 ffee 	bl	3afc <_ZN14USBDeviceClass7sendZlpEm>
    2b20:	2501      	movs	r5, #1
    2b22:	2e23      	cmp	r6, #35	; 0x23
    2b24:	d1cf      	bne.n	2ac6 <_ZN7Serial_5setupER8USBSetup+0x26>
    2b26:	78e3      	ldrb	r3, [r4, #3]
    2b28:	78a2      	ldrb	r2, [r4, #2]
    2b2a:	021b      	lsls	r3, r3, #8
    2b2c:	4313      	orrs	r3, r2
    2b2e:	4a05      	ldr	r2, [pc, #20]	; (2b44 <_ZN7Serial_5setupER8USBSetup+0xa4>)
    2b30:	2100      	movs	r1, #0
    2b32:	4803      	ldr	r0, [pc, #12]	; (2b40 <_ZN7Serial_5setupER8USBSetup+0xa0>)
    2b34:	6013      	str	r3, [r2, #0]
    2b36:	f000 ffe1 	bl	3afc <_ZN14USBDeviceClass7sendZlpEm>
    2b3a:	e7c4      	b.n	2ac6 <_ZN7Serial_5setupER8USBSetup+0x26>
    2b3c:	20000008 	.word	0x20000008
    2b40:	2000096c 	.word	0x2000096c
    2b44:	20000004 	.word	0x20000004

00002b48 <_ZThn16_N7Serial_5setupER8USBSetup>:
    2b48:	b408      	push	{r3}
    2b4a:	4b02      	ldr	r3, [pc, #8]	; (2b54 <_ZThn16_N7Serial_5setupER8USBSetup+0xc>)
    2b4c:	469c      	mov	ip, r3
    2b4e:	3810      	subs	r0, #16
    2b50:	bc08      	pop	{r3}
    2b52:	4760      	bx	ip
    2b54:	00002aa1 	.word	0x00002aa1

00002b58 <_ZN7Serial_9availableEv>:
    2b58:	b510      	push	{r4, lr}
    2b5a:	7d41      	ldrb	r1, [r0, #21]
    2b5c:	6a00      	ldr	r0, [r0, #32]
    2b5e:	3101      	adds	r1, #1
    2b60:	f000 fd2e 	bl	35c0 <_ZN14USBDeviceClass9availableEm>
    2b64:	4b03      	ldr	r3, [pc, #12]	; (2b74 <_ZN7Serial_9availableEv+0x1c>)
    2b66:	681b      	ldr	r3, [r3, #0]
    2b68:	3301      	adds	r3, #1
    2b6a:	1e5a      	subs	r2, r3, #1
    2b6c:	4193      	sbcs	r3, r2
    2b6e:	1818      	adds	r0, r3, r0
    2b70:	bd10      	pop	{r4, pc}
    2b72:	46c0      	nop			; (mov r8, r8)
    2b74:	20000010 	.word	0x20000010

00002b78 <_ZN7Serial_5flushEv>:
    2b78:	b510      	push	{r4, lr}
    2b7a:	7d41      	ldrb	r1, [r0, #21]
    2b7c:	6a00      	ldr	r0, [r0, #32]
    2b7e:	3102      	adds	r1, #2
    2b80:	f000 fd34 	bl	35ec <_ZN14USBDeviceClass5flushEm>
    2b84:	bd10      	pop	{r4, pc}

00002b86 <_ZN7Serial_5clearEv>:
    2b86:	b510      	push	{r4, lr}
    2b88:	7d41      	ldrb	r1, [r0, #21]
    2b8a:	6a00      	ldr	r0, [r0, #32]
    2b8c:	3102      	adds	r1, #2
    2b8e:	f000 fcfb 	bl	3588 <_ZN14USBDeviceClass5clearEm>
    2b92:	bd10      	pop	{r4, pc}

00002b94 <_ZN7Serial_5writeEPKhj>:
    2b94:	b570      	push	{r4, r5, r6, lr}
    2b96:	000d      	movs	r5, r1
    2b98:	7d41      	ldrb	r1, [r0, #21]
    2b9a:	0004      	movs	r4, r0
    2b9c:	0013      	movs	r3, r2
    2b9e:	3102      	adds	r1, #2
    2ba0:	002a      	movs	r2, r5
    2ba2:	6a00      	ldr	r0, [r0, #32]
    2ba4:	f000 fdea 	bl	377c <_ZN14USBDeviceClass4sendEmPKvm>
    2ba8:	2800      	cmp	r0, #0
    2baa:	d101      	bne.n	2bb0 <_ZN7Serial_5writeEPKhj+0x1c>
    2bac:	2301      	movs	r3, #1
    2bae:	6063      	str	r3, [r4, #4]
    2bb0:	bd70      	pop	{r4, r5, r6, pc}
	...

00002bb4 <_ZN7Serial_4peekEv>:
    2bb4:	b510      	push	{r4, lr}
    2bb6:	4c05      	ldr	r4, [pc, #20]	; (2bcc <_ZN7Serial_4peekEv+0x18>)
    2bb8:	6823      	ldr	r3, [r4, #0]
    2bba:	1c5a      	adds	r2, r3, #1
    2bbc:	d104      	bne.n	2bc8 <_ZN7Serial_4peekEv+0x14>
    2bbe:	6803      	ldr	r3, [r0, #0]
    2bc0:	695b      	ldr	r3, [r3, #20]
    2bc2:	4798      	blx	r3
    2bc4:	0003      	movs	r3, r0
    2bc6:	6020      	str	r0, [r4, #0]
    2bc8:	0018      	movs	r0, r3
    2bca:	bd10      	pop	{r4, pc}
    2bcc:	20000010 	.word	0x20000010

00002bd0 <_ZN7Serial_4readEv>:
    2bd0:	4a07      	ldr	r2, [pc, #28]	; (2bf0 <_ZN7Serial_4readEv+0x20>)
    2bd2:	0003      	movs	r3, r0
    2bd4:	6810      	ldr	r0, [r2, #0]
    2bd6:	b510      	push	{r4, lr}
    2bd8:	1c41      	adds	r1, r0, #1
    2bda:	d003      	beq.n	2be4 <_ZN7Serial_4readEv+0x14>
    2bdc:	2301      	movs	r3, #1
    2bde:	425b      	negs	r3, r3
    2be0:	6013      	str	r3, [r2, #0]
    2be2:	bd10      	pop	{r4, pc}
    2be4:	7d59      	ldrb	r1, [r3, #21]
    2be6:	6a18      	ldr	r0, [r3, #32]
    2be8:	3101      	adds	r1, #1
    2bea:	f000 fd77 	bl	36dc <_ZN14USBDeviceClass4recvEm>
    2bee:	e7f8      	b.n	2be2 <_ZN7Serial_4readEv+0x12>
    2bf0:	20000010 	.word	0x20000010

00002bf4 <_ZN7Serial_C1ER14USBDeviceClass>:
    2bf4:	23fa      	movs	r3, #250	; 0xfa
    2bf6:	009b      	lsls	r3, r3, #2
    2bf8:	b570      	push	{r4, r5, r6, lr}
    2bfa:	0004      	movs	r4, r0
    2bfc:	6083      	str	r3, [r0, #8]
    2bfe:	2303      	movs	r3, #3
    2c00:	7583      	strb	r3, [r0, #22]
    2c02:	0023      	movs	r3, r4
    2c04:	2200      	movs	r2, #0
    2c06:	3328      	adds	r3, #40	; 0x28
    2c08:	6042      	str	r2, [r0, #4]
    2c0a:	61a3      	str	r3, [r4, #24]
    2c0c:	4b0c      	ldr	r3, [pc, #48]	; (2c40 <_ZN7Serial_C1ER14USBDeviceClass+0x4c>)
    2c0e:	2002      	movs	r0, #2
    2c10:	001d      	movs	r5, r3
    2c12:	3344      	adds	r3, #68	; 0x44
    2c14:	6123      	str	r3, [r4, #16]
    2c16:	3508      	adds	r5, #8
    2c18:	1d63      	adds	r3, r4, #5
    2c1a:	61e2      	str	r2, [r4, #28]
    2c1c:	6025      	str	r5, [r4, #0]
    2c1e:	6221      	str	r1, [r4, #32]
    2c20:	75e0      	strb	r0, [r4, #23]
    2c22:	77da      	strb	r2, [r3, #31]
    2c24:	2383      	movs	r3, #131	; 0x83
    2c26:	62a3      	str	r3, [r4, #40]	; 0x28
    2c28:	3b01      	subs	r3, #1
    2c2a:	6323      	str	r3, [r4, #48]	; 0x30
    2c2c:	62e0      	str	r0, [r4, #44]	; 0x2c
    2c2e:	f000 f8ad 	bl	2d8c <_Z12PluggableUSBv>
    2c32:	0021      	movs	r1, r4
    2c34:	3110      	adds	r1, #16
    2c36:	f000 f87d 	bl	2d34 <_ZN13PluggableUSB_4plugEP18PluggableUSBModule>
    2c3a:	0020      	movs	r0, r4
    2c3c:	bd70      	pop	{r4, r5, r6, pc}
    2c3e:	46c0      	nop			; (mov r8, r8)
    2c40:	00004bb0 	.word	0x00004bb0

00002c44 <_ZN7Serial_15enableInterruptEv>:
    2c44:	b510      	push	{r4, lr}
    2c46:	7d43      	ldrb	r3, [r0, #21]
    2c48:	4a09      	ldr	r2, [pc, #36]	; (2c70 <_ZN7Serial_15enableInterruptEv+0x2c>)
    2c4a:	2002      	movs	r0, #2
    2c4c:	0159      	lsls	r1, r3, #5
    2c4e:	3301      	adds	r3, #1
    2c50:	6812      	ldr	r2, [r2, #0]
    2c52:	b2db      	uxtb	r3, r3
    2c54:	015b      	lsls	r3, r3, #5
    2c56:	1851      	adds	r1, r2, r1
    2c58:	18d3      	adds	r3, r2, r3
    2c5a:	2201      	movs	r2, #1
    2c5c:	31ff      	adds	r1, #255	; 0xff
    2c5e:	7a8c      	ldrb	r4, [r1, #10]
    2c60:	33ff      	adds	r3, #255	; 0xff
    2c62:	4320      	orrs	r0, r4
    2c64:	7288      	strb	r0, [r1, #10]
    2c66:	7a99      	ldrb	r1, [r3, #10]
    2c68:	430a      	orrs	r2, r1
    2c6a:	729a      	strb	r2, [r3, #10]
    2c6c:	bd10      	pop	{r4, pc}
    2c6e:	46c0      	nop			; (mov r8, r8)
    2c70:	20000e24 	.word	0x20000e24

00002c74 <_ZN7Serial_5beginEm>:
    2c74:	4770      	bx	lr
	...

00002c78 <_GLOBAL__sub_I__ZN7Serial_12getInterfaceEPh>:
    2c78:	b510      	push	{r4, lr}
    2c7a:	4902      	ldr	r1, [pc, #8]	; (2c84 <_GLOBAL__sub_I__ZN7Serial_12getInterfaceEPh+0xc>)
    2c7c:	4802      	ldr	r0, [pc, #8]	; (2c88 <_GLOBAL__sub_I__ZN7Serial_12getInterfaceEPh+0x10>)
    2c7e:	f7ff ffb9 	bl	2bf4 <_ZN7Serial_C1ER14USBDeviceClass>
    2c82:	bd10      	pop	{r4, pc}
    2c84:	2000096c 	.word	0x2000096c
    2c88:	20000904 	.word	0x20000904

00002c8c <_ZN13PluggableUSB_12getInterfaceEPh>:
    2c8c:	b570      	push	{r4, r5, r6, lr}
    2c8e:	000e      	movs	r6, r1
    2c90:	2500      	movs	r5, #0
    2c92:	6844      	ldr	r4, [r0, #4]
    2c94:	2c00      	cmp	r4, #0
    2c96:	d00b      	beq.n	2cb0 <_ZN13PluggableUSB_12getInterfaceEPh+0x24>
    2c98:	6823      	ldr	r3, [r4, #0]
    2c9a:	0031      	movs	r1, r6
    2c9c:	685b      	ldr	r3, [r3, #4]
    2c9e:	0020      	movs	r0, r4
    2ca0:	4798      	blx	r3
    2ca2:	2800      	cmp	r0, #0
    2ca4:	db02      	blt.n	2cac <_ZN13PluggableUSB_12getInterfaceEPh+0x20>
    2ca6:	182d      	adds	r5, r5, r0
    2ca8:	68e4      	ldr	r4, [r4, #12]
    2caa:	e7f3      	b.n	2c94 <_ZN13PluggableUSB_12getInterfaceEPh+0x8>
    2cac:	2501      	movs	r5, #1
    2cae:	426d      	negs	r5, r5
    2cb0:	0028      	movs	r0, r5
    2cb2:	bd70      	pop	{r4, r5, r6, pc}

00002cb4 <_ZN13PluggableUSB_13getDescriptorER8USBSetup>:
    2cb4:	b570      	push	{r4, r5, r6, lr}
    2cb6:	000d      	movs	r5, r1
    2cb8:	6844      	ldr	r4, [r0, #4]
    2cba:	2c00      	cmp	r4, #0
    2cbc:	d008      	beq.n	2cd0 <_ZN13PluggableUSB_13getDescriptorER8USBSetup+0x1c>
    2cbe:	6823      	ldr	r3, [r4, #0]
    2cc0:	0029      	movs	r1, r5
    2cc2:	689b      	ldr	r3, [r3, #8]
    2cc4:	0020      	movs	r0, r4
    2cc6:	4798      	blx	r3
    2cc8:	2800      	cmp	r0, #0
    2cca:	d102      	bne.n	2cd2 <_ZN13PluggableUSB_13getDescriptorER8USBSetup+0x1e>
    2ccc:	68e4      	ldr	r4, [r4, #12]
    2cce:	e7f4      	b.n	2cba <_ZN13PluggableUSB_13getDescriptorER8USBSetup+0x6>
    2cd0:	0020      	movs	r0, r4
    2cd2:	bd70      	pop	{r4, r5, r6, pc}

00002cd4 <_ZN13PluggableUSB_12getShortNameEPc>:
    2cd4:	b570      	push	{r4, r5, r6, lr}
    2cd6:	000d      	movs	r5, r1
    2cd8:	2600      	movs	r6, #0
    2cda:	6844      	ldr	r4, [r0, #4]
    2cdc:	2c00      	cmp	r4, #0
    2cde:	d009      	beq.n	2cf4 <_ZN13PluggableUSB_12getShortNameEPc+0x20>
    2ce0:	6823      	ldr	r3, [r4, #0]
    2ce2:	0029      	movs	r1, r5
    2ce4:	0020      	movs	r0, r4
    2ce6:	691b      	ldr	r3, [r3, #16]
    2ce8:	4798      	blx	r3
    2cea:	1836      	adds	r6, r6, r0
    2cec:	182d      	adds	r5, r5, r0
    2cee:	b2f6      	uxtb	r6, r6
    2cf0:	68e4      	ldr	r4, [r4, #12]
    2cf2:	e7f3      	b.n	2cdc <_ZN13PluggableUSB_12getShortNameEPc+0x8>
    2cf4:	0030      	movs	r0, r6
    2cf6:	702c      	strb	r4, [r5, #0]
    2cf8:	bd70      	pop	{r4, r5, r6, pc}

00002cfa <_ZN13PluggableUSB_5setupER8USBSetup>:
    2cfa:	b570      	push	{r4, r5, r6, lr}
    2cfc:	000d      	movs	r5, r1
    2cfe:	6844      	ldr	r4, [r0, #4]
    2d00:	2c00      	cmp	r4, #0
    2d02:	d008      	beq.n	2d16 <_ZN13PluggableUSB_5setupER8USBSetup+0x1c>
    2d04:	6823      	ldr	r3, [r4, #0]
    2d06:	0029      	movs	r1, r5
    2d08:	681b      	ldr	r3, [r3, #0]
    2d0a:	0020      	movs	r0, r4
    2d0c:	4798      	blx	r3
    2d0e:	2800      	cmp	r0, #0
    2d10:	d102      	bne.n	2d18 <_ZN13PluggableUSB_5setupER8USBSetup+0x1e>
    2d12:	68e4      	ldr	r4, [r4, #12]
    2d14:	e7f4      	b.n	2d00 <_ZN13PluggableUSB_5setupER8USBSetup+0x6>
    2d16:	0020      	movs	r0, r4
    2d18:	bd70      	pop	{r4, r5, r6, pc}

00002d1a <_ZN13PluggableUSB_14handleEndpointEi>:
    2d1a:	b570      	push	{r4, r5, r6, lr}
    2d1c:	000d      	movs	r5, r1
    2d1e:	6844      	ldr	r4, [r0, #4]
    2d20:	2c00      	cmp	r4, #0
    2d22:	d006      	beq.n	2d32 <_ZN13PluggableUSB_14handleEndpointEi+0x18>
    2d24:	6823      	ldr	r3, [r4, #0]
    2d26:	0020      	movs	r0, r4
    2d28:	68db      	ldr	r3, [r3, #12]
    2d2a:	0029      	movs	r1, r5
    2d2c:	4798      	blx	r3
    2d2e:	68e4      	ldr	r4, [r4, #12]
    2d30:	e7f6      	b.n	2d20 <_ZN13PluggableUSB_14handleEndpointEi+0x6>
    2d32:	bd70      	pop	{r4, r5, r6, pc}

00002d34 <_ZN13PluggableUSB_4plugEP18PluggableUSBModule>:
    2d34:	b5f0      	push	{r4, r5, r6, r7, lr}
    2d36:	798c      	ldrb	r4, [r1, #6]
    2d38:	7845      	ldrb	r5, [r0, #1]
    2d3a:	0003      	movs	r3, r0
    2d3c:	192a      	adds	r2, r5, r4
    2d3e:	2000      	movs	r0, #0
    2d40:	2a07      	cmp	r2, #7
    2d42:	dc1f      	bgt.n	2d84 <_ZN13PluggableUSB_4plugEP18PluggableUSBModule+0x50>
    2d44:	685a      	ldr	r2, [r3, #4]
    2d46:	4282      	cmp	r2, r0
    2d48:	d116      	bne.n	2d78 <_ZN13PluggableUSB_4plugEP18PluggableUSBModule+0x44>
    2d4a:	6059      	str	r1, [r3, #4]
    2d4c:	781a      	ldrb	r2, [r3, #0]
    2d4e:	79c8      	ldrb	r0, [r1, #7]
    2d50:	710a      	strb	r2, [r1, #4]
    2d52:	1812      	adds	r2, r2, r0
    2d54:	714d      	strb	r5, [r1, #5]
    2d56:	701a      	strb	r2, [r3, #0]
    2d58:	2200      	movs	r2, #0
    2d5a:	4d0b      	ldr	r5, [pc, #44]	; (2d88 <_ZN13PluggableUSB_4plugEP18PluggableUSBModule+0x54>)
    2d5c:	4294      	cmp	r4, r2
    2d5e:	dd10      	ble.n	2d82 <_ZN13PluggableUSB_4plugEP18PluggableUSBModule+0x4e>
    2d60:	688f      	ldr	r7, [r1, #8]
    2d62:	7858      	ldrb	r0, [r3, #1]
    2d64:	0096      	lsls	r6, r2, #2
    2d66:	59f7      	ldr	r7, [r6, r7]
    2d68:	3201      	adds	r2, #1
    2d6a:	0086      	lsls	r6, r0, #2
    2d6c:	3001      	adds	r0, #1
    2d6e:	5177      	str	r7, [r6, r5]
    2d70:	b2d2      	uxtb	r2, r2
    2d72:	7058      	strb	r0, [r3, #1]
    2d74:	e7f2      	b.n	2d5c <_ZN13PluggableUSB_4plugEP18PluggableUSBModule+0x28>
    2d76:	0002      	movs	r2, r0
    2d78:	68d0      	ldr	r0, [r2, #12]
    2d7a:	2800      	cmp	r0, #0
    2d7c:	d1fb      	bne.n	2d76 <_ZN13PluggableUSB_4plugEP18PluggableUSBModule+0x42>
    2d7e:	60d1      	str	r1, [r2, #12]
    2d80:	e7e4      	b.n	2d4c <_ZN13PluggableUSB_4plugEP18PluggableUSBModule+0x18>
    2d82:	2001      	movs	r0, #1
    2d84:	bdf0      	pop	{r4, r5, r6, r7, pc}
    2d86:	46c0      	nop			; (mov r8, r8)
    2d88:	20000944 	.word	0x20000944

00002d8c <_Z12PluggableUSBv>:
    2d8c:	2201      	movs	r2, #1
    2d8e:	4905      	ldr	r1, [pc, #20]	; (2da4 <_Z12PluggableUSBv+0x18>)
    2d90:	4805      	ldr	r0, [pc, #20]	; (2da8 <_Z12PluggableUSBv+0x1c>)
    2d92:	680b      	ldr	r3, [r1, #0]
    2d94:	4013      	ands	r3, r2
    2d96:	d103      	bne.n	2da0 <_Z12PluggableUSBv+0x14>
    2d98:	7003      	strb	r3, [r0, #0]
    2d9a:	7042      	strb	r2, [r0, #1]
    2d9c:	6043      	str	r3, [r0, #4]
    2d9e:	600a      	str	r2, [r1, #0]
    2da0:	4770      	bx	lr
    2da2:	46c0      	nop			; (mov r8, r8)
    2da4:	20000938 	.word	0x20000938
    2da8:	2000093c 	.word	0x2000093c

00002dac <_ZN26DoubleBufferedEPOutHandlerD1Ev>:
    2dac:	4770      	bx	lr

00002dae <_ZN26DoubleBufferedEPOutHandlerD0Ev>:
    2dae:	b510      	push	{r4, lr}
    2db0:	0004      	movs	r4, r0
    2db2:	f001 f9b3 	bl	411c <_ZdlPv>
    2db6:	0020      	movs	r0, r4
    2db8:	bd10      	pop	{r4, pc}
	...

00002dbc <_ZN14USBDeviceClass6initEPEmm.part.7>:
    2dbc:	b5f0      	push	{r4, r5, r6, r7, lr}
    2dbe:	2982      	cmp	r1, #130	; 0x82
    2dc0:	d119      	bne.n	2df6 <_ZN14USBDeviceClass6initEPEmm.part.7+0x3a>
    2dc2:	b2c3      	uxtb	r3, r0
    2dc4:	4d29      	ldr	r5, [pc, #164]	; (2e6c <_ZN14USBDeviceClass6initEPEmm.part.7+0xb0>)
    2dc6:	015a      	lsls	r2, r3, #5
    2dc8:	18aa      	adds	r2, r5, r2
    2dca:	6991      	ldr	r1, [r2, #24]
    2dcc:	4c28      	ldr	r4, [pc, #160]	; (2e70 <_ZN14USBDeviceClass6initEPEmm.part.7+0xb4>)
    2dce:	0180      	lsls	r0, r0, #6
    2dd0:	400c      	ands	r4, r1
    2dd2:	21c0      	movs	r1, #192	; 0xc0
    2dd4:	0589      	lsls	r1, r1, #22
    2dd6:	4321      	orrs	r1, r4
    2dd8:	6191      	str	r1, [r2, #24]
    2dda:	4926      	ldr	r1, [pc, #152]	; (2e74 <_ZN14USBDeviceClass6initEPEmm.part.7+0xb8>)
    2ddc:	3308      	adds	r3, #8
    2dde:	1808      	adds	r0, r1, r0
    2de0:	2170      	movs	r1, #112	; 0x70
    2de2:	6150      	str	r0, [r2, #20]
    2de4:	6828      	ldr	r0, [r5, #0]
    2de6:	015b      	lsls	r3, r3, #5
    2de8:	5c1a      	ldrb	r2, [r3, r0]
    2dea:	438a      	bics	r2, r1
    2dec:	0011      	movs	r1, r2
    2dee:	2230      	movs	r2, #48	; 0x30
    2df0:	430a      	orrs	r2, r1
    2df2:	541a      	strb	r2, [r3, r0]
    2df4:	bdf0      	pop	{r4, r5, r6, r7, pc}
    2df6:	2900      	cmp	r1, #0
    2df8:	d1fc      	bne.n	2df4 <_ZN14USBDeviceClass6initEPEmm.part.7+0x38>
    2dfa:	26c0      	movs	r6, #192	; 0xc0
    2dfc:	b2c1      	uxtb	r1, r0
    2dfe:	4c1b      	ldr	r4, [pc, #108]	; (2e6c <_ZN14USBDeviceClass6initEPEmm.part.7+0xb0>)
    2e00:	014b      	lsls	r3, r1, #5
    2e02:	18e3      	adds	r3, r4, r3
    2e04:	689a      	ldr	r2, [r3, #8]
    2e06:	4d1a      	ldr	r5, [pc, #104]	; (2e70 <_ZN14USBDeviceClass6initEPEmm.part.7+0xb4>)
    2e08:	05b6      	lsls	r6, r6, #22
    2e0a:	402a      	ands	r2, r5
    2e0c:	4332      	orrs	r2, r6
    2e0e:	609a      	str	r2, [r3, #8]
    2e10:	4a19      	ldr	r2, [pc, #100]	; (2e78 <_ZN14USBDeviceClass6initEPEmm.part.7+0xbc>)
    2e12:	0180      	lsls	r0, r0, #6
    2e14:	1812      	adds	r2, r2, r0
    2e16:	605a      	str	r2, [r3, #4]
    2e18:	000a      	movs	r2, r1
    2e1a:	2707      	movs	r7, #7
    2e1c:	6824      	ldr	r4, [r4, #0]
    2e1e:	3208      	adds	r2, #8
    2e20:	0152      	lsls	r2, r2, #5
    2e22:	5d11      	ldrb	r1, [r2, r4]
    2e24:	43b9      	bics	r1, r7
    2e26:	000f      	movs	r7, r1
    2e28:	2101      	movs	r1, #1
    2e2a:	4339      	orrs	r1, r7
    2e2c:	5511      	strb	r1, [r2, r4]
    2e2e:	699f      	ldr	r7, [r3, #24]
    2e30:	4910      	ldr	r1, [pc, #64]	; (2e74 <_ZN14USBDeviceClass6initEPEmm.part.7+0xb8>)
    2e32:	403d      	ands	r5, r7
    2e34:	1808      	adds	r0, r1, r0
    2e36:	432e      	orrs	r6, r5
    2e38:	619e      	str	r6, [r3, #24]
    2e3a:	6158      	str	r0, [r3, #20]
    2e3c:	2070      	movs	r0, #112	; 0x70
    2e3e:	5d11      	ldrb	r1, [r2, r4]
    2e40:	4381      	bics	r1, r0
    2e42:	0008      	movs	r0, r1
    2e44:	2110      	movs	r1, #16
    2e46:	4301      	orrs	r1, r0
    2e48:	5511      	strb	r1, [r2, r4]
    2e4a:	6899      	ldr	r1, [r3, #8]
    2e4c:	480b      	ldr	r0, [pc, #44]	; (2e7c <_ZN14USBDeviceClass6initEPEmm.part.7+0xc0>)
    2e4e:	18a2      	adds	r2, r4, r2
    2e50:	4008      	ands	r0, r1
    2e52:	2180      	movs	r1, #128	; 0x80
    2e54:	0349      	lsls	r1, r1, #13
    2e56:	4301      	orrs	r1, r0
    2e58:	6099      	str	r1, [r3, #8]
    2e5a:	6899      	ldr	r1, [r3, #8]
    2e5c:	0b89      	lsrs	r1, r1, #14
    2e5e:	0389      	lsls	r1, r1, #14
    2e60:	6099      	str	r1, [r3, #8]
    2e62:	2340      	movs	r3, #64	; 0x40
    2e64:	7911      	ldrb	r1, [r2, #4]
    2e66:	430b      	orrs	r3, r1
    2e68:	7113      	strb	r3, [r2, #4]
    2e6a:	e7c3      	b.n	2df4 <_ZN14USBDeviceClass6initEPEmm.part.7+0x38>
    2e6c:	20000e24 	.word	0x20000e24
    2e70:	8fffffff 	.word	0x8fffffff
    2e74:	20000998 	.word	0x20000998
    2e78:	20000b58 	.word	0x20000b58
    2e7c:	f0003fff 	.word	0xf0003fff

00002e80 <_ZN7__GuardC1Ev>:
  __ASM volatile ("MRS %0, primask" : "=r" (result) :: "memory");
    2e80:	f3ef 8310 	mrs	r3, PRIMASK
    2e84:	6003      	str	r3, [r0, #0]
    2e86:	2301      	movs	r3, #1
    2e88:	6043      	str	r3, [r0, #4]
  __ASM volatile ("cpsid i" : : : "memory");
    2e8a:	b672      	cpsid	i
    2e8c:	4770      	bx	lr

00002e8e <_ZN7__GuardD1Ev>:
    2e8e:	6803      	ldr	r3, [r0, #0]
    2e90:	2b00      	cmp	r3, #0
    2e92:	d102      	bne.n	2e9a <_ZN7__GuardD1Ev+0xc>
  __ASM volatile ("cpsie i" : : : "memory");
    2e94:	b662      	cpsie	i
  __ASM volatile ("isb 0xF":::"memory");
    2e96:	f3bf 8f6f 	isb	sy
    2e9a:	4770      	bx	lr

00002e9c <_ZNK26DoubleBufferedEPOutHandler10_availableEv>:
    2e9c:	b5f7      	push	{r0, r1, r2, r4, r5, r6, r7, lr}
    2e9e:	0006      	movs	r6, r0
    2ea0:	36fc      	adds	r6, #252	; 0xfc
    2ea2:	69b3      	ldr	r3, [r6, #24]
    2ea4:	0004      	movs	r4, r0
    2ea6:	2b00      	cmp	r3, #0
    2ea8:	d118      	bne.n	2edc <_ZNK26DoubleBufferedEPOutHandler10_availableEv+0x40>
    2eaa:	27b2      	movs	r7, #178	; 0xb2
    2eac:	007f      	lsls	r7, r7, #1
    2eae:	5dc5      	ldrb	r5, [r0, r7]
    2eb0:	4668      	mov	r0, sp
    2eb2:	f7ff ffe5 	bl	2e80 <_ZN7__GuardC1Ev>
    2eb6:	9b01      	ldr	r3, [sp, #4]
    2eb8:	b2ed      	uxtb	r5, r5
    2eba:	3b01      	subs	r3, #1
    2ebc:	d302      	bcc.n	2ec4 <_ZNK26DoubleBufferedEPOutHandler10_availableEv+0x28>
    2ebe:	5de5      	ldrb	r5, [r4, r7]
    2ec0:	b2ed      	uxtb	r5, r5
    2ec2:	e7fa      	b.n	2eba <_ZNK26DoubleBufferedEPOutHandler10_availableEv+0x1e>
    2ec4:	4668      	mov	r0, sp
    2ec6:	9301      	str	r3, [sp, #4]
    2ec8:	f7ff ffe1 	bl	2e8e <_ZN7__GuardD1Ev>
    2ecc:	2d00      	cmp	r5, #0
    2ece:	d101      	bne.n	2ed4 <_ZNK26DoubleBufferedEPOutHandler10_availableEv+0x38>
    2ed0:	2000      	movs	r0, #0
    2ed2:	bdfe      	pop	{r1, r2, r3, r4, r5, r6, r7, pc}
    2ed4:	6e70      	ldr	r0, [r6, #100]	; 0x64
    2ed6:	6e33      	ldr	r3, [r6, #96]	; 0x60
    2ed8:	1ac0      	subs	r0, r0, r3
    2eda:	e7fa      	b.n	2ed2 <_ZNK26DoubleBufferedEPOutHandler10_availableEv+0x36>
    2edc:	4668      	mov	r0, sp
    2ede:	f7ff ffcf 	bl	2e80 <_ZN7__GuardC1Ev>
    2ee2:	22d8      	movs	r2, #216	; 0xd8
    2ee4:	2500      	movs	r5, #0
    2ee6:	9b01      	ldr	r3, [sp, #4]
    2ee8:	0052      	lsls	r2, r2, #1
    2eea:	3b01      	subs	r3, #1
    2eec:	d302      	bcc.n	2ef4 <_ZNK26DoubleBufferedEPOutHandler10_availableEv+0x58>
    2eee:	5ca5      	ldrb	r5, [r4, r2]
    2ef0:	b2ed      	uxtb	r5, r5
    2ef2:	e7fa      	b.n	2eea <_ZNK26DoubleBufferedEPOutHandler10_availableEv+0x4e>
    2ef4:	4668      	mov	r0, sp
    2ef6:	9301      	str	r3, [sp, #4]
    2ef8:	f7ff ffc9 	bl	2e8e <_ZN7__GuardD1Ev>
    2efc:	2d00      	cmp	r5, #0
    2efe:	d0e7      	beq.n	2ed0 <_ZNK26DoubleBufferedEPOutHandler10_availableEv+0x34>
    2f00:	23d6      	movs	r3, #214	; 0xd6
    2f02:	005b      	lsls	r3, r3, #1
    2f04:	58e0      	ldr	r0, [r4, r3]
    2f06:	3b04      	subs	r3, #4
    2f08:	58e3      	ldr	r3, [r4, r3]
    2f0a:	e7e5      	b.n	2ed8 <_ZNK26DoubleBufferedEPOutHandler10_availableEv+0x3c>

00002f0c <_ZN26DoubleBufferedEPOutHandler7releaseEv>:
    2f0c:	b510      	push	{r4, lr}
    2f0e:	6844      	ldr	r4, [r0, #4]
    2f10:	30fc      	adds	r0, #252	; 0xfc
    2f12:	6943      	ldr	r3, [r0, #20]
    2f14:	480b      	ldr	r0, [pc, #44]	; (2f44 <_ZN26DoubleBufferedEPOutHandler7releaseEv+0x38>)
    2f16:	b2db      	uxtb	r3, r3
    2f18:	015a      	lsls	r2, r3, #5
    2f1a:	18a2      	adds	r2, r4, r2
    2f1c:	6891      	ldr	r1, [r2, #8]
    2f1e:	3308      	adds	r3, #8
    2f20:	4008      	ands	r0, r1
    2f22:	2180      	movs	r1, #128	; 0x80
    2f24:	0349      	lsls	r1, r1, #13
    2f26:	4301      	orrs	r1, r0
    2f28:	6091      	str	r1, [r2, #8]
    2f2a:	6891      	ldr	r1, [r2, #8]
    2f2c:	015b      	lsls	r3, r3, #5
    2f2e:	0b89      	lsrs	r1, r1, #14
    2f30:	0389      	lsls	r1, r1, #14
    2f32:	6091      	str	r1, [r2, #8]
    2f34:	6822      	ldr	r2, [r4, #0]
    2f36:	18d3      	adds	r3, r2, r3
    2f38:	2240      	movs	r2, #64	; 0x40
    2f3a:	7919      	ldrb	r1, [r3, #4]
    2f3c:	430a      	orrs	r2, r1
    2f3e:	711a      	strb	r2, [r3, #4]
    2f40:	bd10      	pop	{r4, pc}
    2f42:	46c0      	nop			; (mov r8, r8)
    2f44:	f0003fff 	.word	0xf0003fff

00002f48 <_ZN26DoubleBufferedEPOutHandler14handleEndpointEv>:
    2f48:	b5f7      	push	{r0, r1, r2, r4, r5, r6, r7, lr}
    2f4a:	0005      	movs	r5, r0
    2f4c:	35fc      	adds	r5, #252	; 0xfc
    2f4e:	7d2b      	ldrb	r3, [r5, #20]
    2f50:	6842      	ldr	r2, [r0, #4]
    2f52:	0019      	movs	r1, r3
    2f54:	0004      	movs	r4, r0
    2f56:	3108      	adds	r1, #8
    2f58:	6810      	ldr	r0, [r2, #0]
    2f5a:	0149      	lsls	r1, r1, #5
    2f5c:	1841      	adds	r1, r0, r1
    2f5e:	79c9      	ldrb	r1, [r1, #7]
    2f60:	07c9      	lsls	r1, r1, #31
    2f62:	d511      	bpl.n	2f88 <_ZN26DoubleBufferedEPOutHandler14handleEndpointEv+0x40>
    2f64:	015b      	lsls	r3, r3, #5
    2f66:	18d2      	adds	r2, r2, r3
    2f68:	6893      	ldr	r3, [r2, #8]
    2f6a:	049b      	lsls	r3, r3, #18
    2f6c:	0c9b      	lsrs	r3, r3, #18
    2f6e:	d10c      	bne.n	2f8a <_ZN26DoubleBufferedEPOutHandler14handleEndpointEv+0x42>
    2f70:	0020      	movs	r0, r4
    2f72:	f7ff ffcb 	bl	2f0c <_ZN26DoubleBufferedEPOutHandler7releaseEv>
    2f76:	6863      	ldr	r3, [r4, #4]
    2f78:	681a      	ldr	r2, [r3, #0]
    2f7a:	696b      	ldr	r3, [r5, #20]
    2f7c:	b2db      	uxtb	r3, r3
    2f7e:	3308      	adds	r3, #8
    2f80:	015b      	lsls	r3, r3, #5
    2f82:	18d3      	adds	r3, r2, r3
    2f84:	227f      	movs	r2, #127	; 0x7f
    2f86:	71da      	strb	r2, [r3, #7]
    2f88:	bdf7      	pop	{r0, r1, r2, r4, r5, r6, r7, pc}
    2f8a:	69e9      	ldr	r1, [r5, #28]
    2f8c:	2900      	cmp	r1, #0
    2f8e:	d123      	bne.n	2fd8 <_ZN26DoubleBufferedEPOutHandler14handleEndpointEv+0x90>
    2f90:	666b      	str	r3, [r5, #100]	; 0x64
    2f92:	0023      	movs	r3, r4
    2f94:	2601      	movs	r6, #1
    2f96:	3369      	adds	r3, #105	; 0x69
    2f98:	33ff      	adds	r3, #255	; 0xff
    2f9a:	61ee      	str	r6, [r5, #28]
    2f9c:	4668      	mov	r0, sp
    2f9e:	6053      	str	r3, [r2, #4]
    2fa0:	27b2      	movs	r7, #178	; 0xb2
    2fa2:	f7ff ff6d 	bl	2e80 <_ZN7__GuardC1Ev>
    2fa6:	007f      	lsls	r7, r7, #1
    2fa8:	21b2      	movs	r1, #178	; 0xb2
    2faa:	9b01      	ldr	r3, [sp, #4]
    2fac:	31ff      	adds	r1, #255	; 0xff
    2fae:	3b01      	subs	r3, #1
    2fb0:	1c5a      	adds	r2, r3, #1
    2fb2:	d038      	beq.n	3026 <_ZN26DoubleBufferedEPOutHandler14handleEndpointEv+0xde>
    2fb4:	22d8      	movs	r2, #216	; 0xd8
    2fb6:	55e6      	strb	r6, [r4, r7]
    2fb8:	0052      	lsls	r2, r2, #1
    2fba:	5ca2      	ldrb	r2, [r4, r2]
    2fbc:	1e58      	subs	r0, r3, #1
    2fbe:	b2d2      	uxtb	r2, r2
    2fc0:	5462      	strb	r2, [r4, r1]
    2fc2:	5c62      	ldrb	r2, [r4, r1]
    2fc4:	4684      	mov	ip, r0
    2fc6:	2a00      	cmp	r2, #0
    2fc8:	d104      	bne.n	2fd4 <_ZN26DoubleBufferedEPOutHandler14handleEndpointEv+0x8c>
    2fca:	0020      	movs	r0, r4
    2fcc:	9301      	str	r3, [sp, #4]
    2fce:	f7ff ff9d 	bl	2f0c <_ZN26DoubleBufferedEPOutHandler7releaseEv>
    2fd2:	e7e9      	b.n	2fa8 <_ZN26DoubleBufferedEPOutHandler14handleEndpointEv+0x60>
    2fd4:	4663      	mov	r3, ip
    2fd6:	e7eb      	b.n	2fb0 <_ZN26DoubleBufferedEPOutHandler14handleEndpointEv+0x68>
    2fd8:	21d6      	movs	r1, #214	; 0xd6
    2fda:	0049      	lsls	r1, r1, #1
    2fdc:	5063      	str	r3, [r4, r1]
    2fde:	2300      	movs	r3, #0
    2fe0:	61eb      	str	r3, [r5, #28]
    2fe2:	0023      	movs	r3, r4
    2fe4:	331d      	adds	r3, #29
    2fe6:	33ff      	adds	r3, #255	; 0xff
    2fe8:	6053      	str	r3, [r2, #4]
    2fea:	4668      	mov	r0, sp
    2fec:	26d8      	movs	r6, #216	; 0xd8
    2fee:	f7ff ff47 	bl	2e80 <_ZN7__GuardC1Ev>
    2ff2:	2701      	movs	r7, #1
    2ff4:	0076      	lsls	r6, r6, #1
    2ff6:	21b2      	movs	r1, #178	; 0xb2
    2ff8:	9b01      	ldr	r3, [sp, #4]
    2ffa:	31ff      	adds	r1, #255	; 0xff
    2ffc:	3b01      	subs	r3, #1
    2ffe:	1c5a      	adds	r2, r3, #1
    3000:	d011      	beq.n	3026 <_ZN26DoubleBufferedEPOutHandler14handleEndpointEv+0xde>
    3002:	22b2      	movs	r2, #178	; 0xb2
    3004:	55a7      	strb	r7, [r4, r6]
    3006:	0052      	lsls	r2, r2, #1
    3008:	5ca2      	ldrb	r2, [r4, r2]
    300a:	1e58      	subs	r0, r3, #1
    300c:	b2d2      	uxtb	r2, r2
    300e:	5462      	strb	r2, [r4, r1]
    3010:	5c62      	ldrb	r2, [r4, r1]
    3012:	4684      	mov	ip, r0
    3014:	2a00      	cmp	r2, #0
    3016:	d104      	bne.n	3022 <_ZN26DoubleBufferedEPOutHandler14handleEndpointEv+0xda>
    3018:	0020      	movs	r0, r4
    301a:	9301      	str	r3, [sp, #4]
    301c:	f7ff ff76 	bl	2f0c <_ZN26DoubleBufferedEPOutHandler7releaseEv>
    3020:	e7e9      	b.n	2ff6 <_ZN26DoubleBufferedEPOutHandler14handleEndpointEv+0xae>
    3022:	4663      	mov	r3, ip
    3024:	e7eb      	b.n	2ffe <_ZN26DoubleBufferedEPOutHandler14handleEndpointEv+0xb6>
    3026:	4668      	mov	r0, sp
    3028:	9301      	str	r3, [sp, #4]
    302a:	f7ff ff30 	bl	2e8e <_ZN7__GuardD1Ev>
    302e:	e7a2      	b.n	2f76 <_ZN26DoubleBufferedEPOutHandler14handleEndpointEv+0x2e>

00003030 <_ZN26DoubleBufferedEPOutHandler5_recvEv>:
    3030:	b5f7      	push	{r0, r1, r2, r4, r5, r6, r7, lr}
    3032:	0005      	movs	r5, r0
    3034:	4668      	mov	r0, sp
    3036:	002c      	movs	r4, r5
    3038:	f7ff ff22 	bl	2e80 <_ZN7__GuardC1Ev>
    303c:	2700      	movs	r7, #0
    303e:	22ff      	movs	r2, #255	; 0xff
    3040:	9b01      	ldr	r3, [sp, #4]
    3042:	34fc      	adds	r4, #252	; 0xfc
    3044:	3b01      	subs	r3, #1
    3046:	d30d      	bcc.n	3064 <_ZN26DoubleBufferedEPOutHandler5_recvEv+0x34>
    3048:	68e0      	ldr	r0, [r4, #12]
    304a:	6921      	ldr	r1, [r4, #16]
    304c:	4288      	cmp	r0, r1
    304e:	db04      	blt.n	305a <_ZN26DoubleBufferedEPOutHandler5_recvEv+0x2a>
    3050:	68e7      	ldr	r7, [r4, #12]
    3052:	6920      	ldr	r0, [r4, #16]
    3054:	1bd7      	subs	r7, r2, r7
    3056:	183f      	adds	r7, r7, r0
    3058:	e7f4      	b.n	3044 <_ZN26DoubleBufferedEPOutHandler5_recvEv+0x14>
    305a:	6927      	ldr	r7, [r4, #16]
    305c:	68e1      	ldr	r1, [r4, #12]
    305e:	1a7f      	subs	r7, r7, r1
    3060:	3f01      	subs	r7, #1
    3062:	e7ef      	b.n	3044 <_ZN26DoubleBufferedEPOutHandler5_recvEv+0x14>
    3064:	4668      	mov	r0, sp
    3066:	9301      	str	r3, [sp, #4]
    3068:	f7ff ff11 	bl	2e8e <_ZN7__GuardD1Ev>
    306c:	69a3      	ldr	r3, [r4, #24]
    306e:	4668      	mov	r0, sp
    3070:	2b00      	cmp	r3, #0
    3072:	d141      	bne.n	30f8 <_ZN26DoubleBufferedEPOutHandler5_recvEv+0xc8>
    3074:	f7ff ff04 	bl	2e80 <_ZN7__GuardC1Ev>
    3078:	21b2      	movs	r1, #178	; 0xb2
    307a:	9b01      	ldr	r3, [sp, #4]
    307c:	0049      	lsls	r1, r1, #1
    307e:	3b01      	subs	r3, #1
    3080:	1c5a      	adds	r2, r3, #1
    3082:	d00c      	beq.n	309e <_ZN26DoubleBufferedEPOutHandler5_recvEv+0x6e>
    3084:	5c6e      	ldrb	r6, [r5, r1]
    3086:	1e5a      	subs	r2, r3, #1
    3088:	b2f6      	uxtb	r6, r6
    308a:	2e00      	cmp	r6, #0
    308c:	d105      	bne.n	309a <_ZN26DoubleBufferedEPOutHandler5_recvEv+0x6a>
    308e:	4668      	mov	r0, sp
    3090:	9301      	str	r3, [sp, #4]
    3092:	f7ff fefc 	bl	2e8e <_ZN7__GuardD1Ev>
    3096:	0030      	movs	r0, r6
    3098:	bdfe      	pop	{r1, r2, r3, r4, r5, r6, r7, pc}
    309a:	0013      	movs	r3, r2
    309c:	e7f0      	b.n	3080 <_ZN26DoubleBufferedEPOutHandler5_recvEv+0x50>
    309e:	4668      	mov	r0, sp
    30a0:	9301      	str	r3, [sp, #4]
    30a2:	2600      	movs	r6, #0
    30a4:	f7ff fef3 	bl	2e8e <_ZN7__GuardD1Ev>
    30a8:	22ff      	movs	r2, #255	; 0xff
    30aa:	42be      	cmp	r6, r7
    30ac:	d003      	beq.n	30b6 <_ZN26DoubleBufferedEPOutHandler5_recvEv+0x86>
    30ae:	6e23      	ldr	r3, [r4, #96]	; 0x60
    30b0:	6e61      	ldr	r1, [r4, #100]	; 0x64
    30b2:	428b      	cmp	r3, r1
    30b4:	d360      	bcc.n	3178 <_ZN26DoubleBufferedEPOutHandler5_recvEv+0x148>
    30b6:	6e63      	ldr	r3, [r4, #100]	; 0x64
    30b8:	6e22      	ldr	r2, [r4, #96]	; 0x60
    30ba:	429a      	cmp	r2, r3
    30bc:	d1eb      	bne.n	3096 <_ZN26DoubleBufferedEPOutHandler5_recvEv+0x66>
    30be:	2300      	movs	r3, #0
    30c0:	6623      	str	r3, [r4, #96]	; 0x60
    30c2:	3301      	adds	r3, #1
    30c4:	61a3      	str	r3, [r4, #24]
    30c6:	4668      	mov	r0, sp
    30c8:	24b2      	movs	r4, #178	; 0xb2
    30ca:	f7ff fed9 	bl	2e80 <_ZN7__GuardC1Ev>
    30ce:	0064      	lsls	r4, r4, #1
    30d0:	22b2      	movs	r2, #178	; 0xb2
    30d2:	2100      	movs	r1, #0
    30d4:	9b01      	ldr	r3, [sp, #4]
    30d6:	32ff      	adds	r2, #255	; 0xff
    30d8:	3b01      	subs	r3, #1
    30da:	1c58      	adds	r0, r3, #1
    30dc:	d0d7      	beq.n	308e <_ZN26DoubleBufferedEPOutHandler5_recvEv+0x5e>
    30de:	5529      	strb	r1, [r5, r4]
    30e0:	5ca8      	ldrb	r0, [r5, r2]
    30e2:	1e5f      	subs	r7, r3, #1
    30e4:	2800      	cmp	r0, #0
    30e6:	d005      	beq.n	30f4 <_ZN26DoubleBufferedEPOutHandler5_recvEv+0xc4>
    30e8:	54a9      	strb	r1, [r5, r2]
    30ea:	0028      	movs	r0, r5
    30ec:	9301      	str	r3, [sp, #4]
    30ee:	f7ff ff0d 	bl	2f0c <_ZN26DoubleBufferedEPOutHandler7releaseEv>
    30f2:	e7ed      	b.n	30d0 <_ZN26DoubleBufferedEPOutHandler5_recvEv+0xa0>
    30f4:	003b      	movs	r3, r7
    30f6:	e7f0      	b.n	30da <_ZN26DoubleBufferedEPOutHandler5_recvEv+0xaa>
    30f8:	f7ff fec2 	bl	2e80 <_ZN7__GuardC1Ev>
    30fc:	21d8      	movs	r1, #216	; 0xd8
    30fe:	9b01      	ldr	r3, [sp, #4]
    3100:	0049      	lsls	r1, r1, #1
    3102:	3b01      	subs	r3, #1
    3104:	1c5a      	adds	r2, r3, #1
    3106:	d006      	beq.n	3116 <_ZN26DoubleBufferedEPOutHandler5_recvEv+0xe6>
    3108:	5c6e      	ldrb	r6, [r5, r1]
    310a:	1e5a      	subs	r2, r3, #1
    310c:	b2f6      	uxtb	r6, r6
    310e:	2e00      	cmp	r6, #0
    3110:	d0bd      	beq.n	308e <_ZN26DoubleBufferedEPOutHandler5_recvEv+0x5e>
    3112:	0013      	movs	r3, r2
    3114:	e7f6      	b.n	3104 <_ZN26DoubleBufferedEPOutHandler5_recvEv+0xd4>
    3116:	4668      	mov	r0, sp
    3118:	9301      	str	r3, [sp, #4]
    311a:	f7ff feb8 	bl	2e8e <_ZN7__GuardD1Ev>
    311e:	22d4      	movs	r2, #212	; 0xd4
    3120:	2600      	movs	r6, #0
    3122:	0052      	lsls	r2, r2, #1
    3124:	42be      	cmp	r6, r7
    3126:	d005      	beq.n	3134 <_ZN26DoubleBufferedEPOutHandler5_recvEv+0x104>
    3128:	21d6      	movs	r1, #214	; 0xd6
    312a:	0049      	lsls	r1, r1, #1
    312c:	58ab      	ldr	r3, [r5, r2]
    312e:	5869      	ldr	r1, [r5, r1]
    3130:	428b      	cmp	r3, r1
    3132:	d332      	bcc.n	319a <_ZN26DoubleBufferedEPOutHandler5_recvEv+0x16a>
    3134:	23d6      	movs	r3, #214	; 0xd6
    3136:	005b      	lsls	r3, r3, #1
    3138:	58eb      	ldr	r3, [r5, r3]
    313a:	58a9      	ldr	r1, [r5, r2]
    313c:	4299      	cmp	r1, r3
    313e:	d1aa      	bne.n	3096 <_ZN26DoubleBufferedEPOutHandler5_recvEv+0x66>
    3140:	2300      	movs	r3, #0
    3142:	4668      	mov	r0, sp
    3144:	50ab      	str	r3, [r5, r2]
    3146:	61a3      	str	r3, [r4, #24]
    3148:	24d8      	movs	r4, #216	; 0xd8
    314a:	f7ff fe99 	bl	2e80 <_ZN7__GuardC1Ev>
    314e:	0064      	lsls	r4, r4, #1
    3150:	22b2      	movs	r2, #178	; 0xb2
    3152:	2100      	movs	r1, #0
    3154:	9b01      	ldr	r3, [sp, #4]
    3156:	32ff      	adds	r2, #255	; 0xff
    3158:	3b01      	subs	r3, #1
    315a:	1c58      	adds	r0, r3, #1
    315c:	d097      	beq.n	308e <_ZN26DoubleBufferedEPOutHandler5_recvEv+0x5e>
    315e:	5529      	strb	r1, [r5, r4]
    3160:	5ca8      	ldrb	r0, [r5, r2]
    3162:	1e5f      	subs	r7, r3, #1
    3164:	2800      	cmp	r0, #0
    3166:	d005      	beq.n	3174 <_ZN26DoubleBufferedEPOutHandler5_recvEv+0x144>
    3168:	54a9      	strb	r1, [r5, r2]
    316a:	0028      	movs	r0, r5
    316c:	9301      	str	r3, [sp, #4]
    316e:	f7ff fecd 	bl	2f0c <_ZN26DoubleBufferedEPOutHandler7releaseEv>
    3172:	e7ed      	b.n	3150 <_ZN26DoubleBufferedEPOutHandler5_recvEv+0x120>
    3174:	003b      	movs	r3, r7
    3176:	e7f0      	b.n	315a <_ZN26DoubleBufferedEPOutHandler5_recvEv+0x12a>
    3178:	1c59      	adds	r1, r3, #1
    317a:	18eb      	adds	r3, r5, r3
    317c:	33ff      	adds	r3, #255	; 0xff
    317e:	6621      	str	r1, [r4, #96]	; 0x60
    3180:	7f59      	ldrb	r1, [r3, #29]
    3182:	68e3      	ldr	r3, [r4, #12]
    3184:	6920      	ldr	r0, [r4, #16]
    3186:	3301      	adds	r3, #1
    3188:	4013      	ands	r3, r2
    318a:	4283      	cmp	r3, r0
    318c:	d003      	beq.n	3196 <_ZN26DoubleBufferedEPOutHandler5_recvEv+0x166>
    318e:	68e0      	ldr	r0, [r4, #12]
    3190:	1828      	adds	r0, r5, r0
    3192:	7201      	strb	r1, [r0, #8]
    3194:	60e3      	str	r3, [r4, #12]
    3196:	3601      	adds	r6, #1
    3198:	e787      	b.n	30aa <_ZN26DoubleBufferedEPOutHandler5_recvEv+0x7a>
    319a:	1c59      	adds	r1, r3, #1
    319c:	50a9      	str	r1, [r5, r2]
    319e:	21ff      	movs	r1, #255	; 0xff
    31a0:	18eb      	adds	r3, r5, r3
    31a2:	3369      	adds	r3, #105	; 0x69
    31a4:	33ff      	adds	r3, #255	; 0xff
    31a6:	781b      	ldrb	r3, [r3, #0]
    31a8:	469c      	mov	ip, r3
    31aa:	68e3      	ldr	r3, [r4, #12]
    31ac:	3301      	adds	r3, #1
    31ae:	400b      	ands	r3, r1
    31b0:	6921      	ldr	r1, [r4, #16]
    31b2:	428b      	cmp	r3, r1
    31b4:	d004      	beq.n	31c0 <_ZN26DoubleBufferedEPOutHandler5_recvEv+0x190>
    31b6:	4660      	mov	r0, ip
    31b8:	68e1      	ldr	r1, [r4, #12]
    31ba:	1869      	adds	r1, r5, r1
    31bc:	7208      	strb	r0, [r1, #8]
    31be:	60e3      	str	r3, [r4, #12]
    31c0:	3601      	adds	r6, #1
    31c2:	e7af      	b.n	3124 <_ZN26DoubleBufferedEPOutHandler5_recvEv+0xf4>

000031c4 <_ZN26DoubleBufferedEPOutHandler4peekEv>:
    31c4:	b510      	push	{r4, lr}
    31c6:	0004      	movs	r4, r0
    31c8:	f7ff ff32 	bl	3030 <_ZN26DoubleBufferedEPOutHandler5_recvEv>
    31cc:	0023      	movs	r3, r4
    31ce:	33fc      	adds	r3, #252	; 0xfc
    31d0:	6919      	ldr	r1, [r3, #16]
    31d2:	68da      	ldr	r2, [r3, #12]
    31d4:	4291      	cmp	r1, r2
    31d6:	d003      	beq.n	31e0 <_ZN26DoubleBufferedEPOutHandler4peekEv+0x1c>
    31d8:	691b      	ldr	r3, [r3, #16]
    31da:	18e4      	adds	r4, r4, r3
    31dc:	7a20      	ldrb	r0, [r4, #8]
    31de:	bd10      	pop	{r4, pc}
    31e0:	2001      	movs	r0, #1
    31e2:	4240      	negs	r0, r0
    31e4:	e7fb      	b.n	31de <_ZN26DoubleBufferedEPOutHandler4peekEv+0x1a>

000031e6 <_ZN26DoubleBufferedEPOutHandler9availableEv>:
    31e6:	b510      	push	{r4, lr}
    31e8:	0004      	movs	r4, r0
    31ea:	34fc      	adds	r4, #252	; 0xfc
    31ec:	f7ff ff20 	bl	3030 <_ZN26DoubleBufferedEPOutHandler5_recvEv>
    31f0:	68e0      	ldr	r0, [r4, #12]
    31f2:	6923      	ldr	r3, [r4, #16]
    31f4:	1ac0      	subs	r0, r0, r3
    31f6:	d501      	bpl.n	31fc <_ZN26DoubleBufferedEPOutHandler9availableEv+0x16>
    31f8:	3001      	adds	r0, #1
    31fa:	30ff      	adds	r0, #255	; 0xff
    31fc:	bd10      	pop	{r4, pc}

000031fe <_ZN26DoubleBufferedEPOutHandler4recvEPvm>:
    31fe:	b5f0      	push	{r4, r5, r6, r7, lr}
    3200:	b085      	sub	sp, #20
    3202:	9201      	str	r2, [sp, #4]
    3204:	9100      	str	r1, [sp, #0]
    3206:	0005      	movs	r5, r0
    3208:	f7ff ff12 	bl	3030 <_ZN26DoubleBufferedEPOutHandler5_recvEv>
    320c:	a802      	add	r0, sp, #8
    320e:	f7ff fe37 	bl	2e80 <_ZN7__GuardC1Ev>
    3212:	2001      	movs	r0, #1
    3214:	2400      	movs	r4, #0
    3216:	26ff      	movs	r6, #255	; 0xff
    3218:	9a03      	ldr	r2, [sp, #12]
    321a:	4240      	negs	r0, r0
    321c:	3a01      	subs	r2, #1
    321e:	d31d      	bcc.n	325c <_ZN26DoubleBufferedEPOutHandler4recvEPvm+0x5e>
    3220:	002b      	movs	r3, r5
    3222:	33fc      	adds	r3, #252	; 0xfc
    3224:	9901      	ldr	r1, [sp, #4]
    3226:	428c      	cmp	r4, r1
    3228:	d2f8      	bcs.n	321c <_ZN26DoubleBufferedEPOutHandler4recvEPvm+0x1e>
    322a:	68d9      	ldr	r1, [r3, #12]
    322c:	691f      	ldr	r7, [r3, #16]
    322e:	1bc9      	subs	r1, r1, r7
    3230:	d501      	bpl.n	3236 <_ZN26DoubleBufferedEPOutHandler4recvEPvm+0x38>
    3232:	3101      	adds	r1, #1
    3234:	31ff      	adds	r1, #255	; 0xff
    3236:	2900      	cmp	r1, #0
    3238:	d0f0      	beq.n	321c <_ZN26DoubleBufferedEPOutHandler4recvEPvm+0x1e>
    323a:	6919      	ldr	r1, [r3, #16]
    323c:	68df      	ldr	r7, [r3, #12]
    323e:	468c      	mov	ip, r1
    3240:	0001      	movs	r1, r0
    3242:	45bc      	cmp	ip, r7
    3244:	d006      	beq.n	3254 <_ZN26DoubleBufferedEPOutHandler4recvEPvm+0x56>
    3246:	6919      	ldr	r1, [r3, #16]
    3248:	691f      	ldr	r7, [r3, #16]
    324a:	1869      	adds	r1, r5, r1
    324c:	3701      	adds	r7, #1
    324e:	4037      	ands	r7, r6
    3250:	7a09      	ldrb	r1, [r1, #8]
    3252:	611f      	str	r7, [r3, #16]
    3254:	9f00      	ldr	r7, [sp, #0]
    3256:	5539      	strb	r1, [r7, r4]
    3258:	3401      	adds	r4, #1
    325a:	e7e3      	b.n	3224 <_ZN26DoubleBufferedEPOutHandler4recvEPvm+0x26>
    325c:	a802      	add	r0, sp, #8
    325e:	9203      	str	r2, [sp, #12]
    3260:	f7ff fe15 	bl	2e8e <_ZN7__GuardD1Ev>
    3264:	0020      	movs	r0, r4
    3266:	b005      	add	sp, #20
    3268:	bdf0      	pop	{r4, r5, r6, r7, pc}

0000326a <_ZN14USBDeviceClass14SendInterfacesEPm>:
    326a:	b537      	push	{r0, r1, r2, r4, r5, lr}
    326c:	466b      	mov	r3, sp
    326e:	1ddc      	adds	r4, r3, #7
    3270:	2300      	movs	r3, #0
    3272:	000d      	movs	r5, r1
    3274:	7023      	strb	r3, [r4, #0]
    3276:	f7ff fd89 	bl	2d8c <_Z12PluggableUSBv>
    327a:	0021      	movs	r1, r4
    327c:	f7ff fd06 	bl	2c8c <_ZN13PluggableUSB_12getInterfaceEPh>
    3280:	682b      	ldr	r3, [r5, #0]
    3282:	1818      	adds	r0, r3, r0
    3284:	6028      	str	r0, [r5, #0]
    3286:	7820      	ldrb	r0, [r4, #0]
    3288:	bd3e      	pop	{r1, r2, r3, r4, r5, pc}
	...

0000328c <_ZN14USBDeviceClass4initEv>:
    328c:	b5f8      	push	{r3, r4, r5, r6, r7, lr}
    328e:	2320      	movs	r3, #32
    3290:	4a3e      	ldr	r2, [pc, #248]	; (338c <_ZN14USBDeviceClass4initEv+0x100>)
    3292:	0005      	movs	r5, r0
    3294:	69d1      	ldr	r1, [r2, #28]
    3296:	200f      	movs	r0, #15
    3298:	430b      	orrs	r3, r1
    329a:	61d3      	str	r3, [r2, #28]
    329c:	2201      	movs	r2, #1
    329e:	493c      	ldr	r1, [pc, #240]	; (3390 <_ZN14USBDeviceClass4initEv+0x104>)
    32a0:	780b      	ldrb	r3, [r1, #0]
    32a2:	4313      	orrs	r3, r2
    32a4:	700b      	strb	r3, [r1, #0]
    32a6:	4b3b      	ldr	r3, [pc, #236]	; (3394 <_ZN14USBDeviceClass4initEv+0x108>)
    32a8:	7819      	ldrb	r1, [r3, #0]
    32aa:	4381      	bics	r1, r0
    32ac:	7019      	strb	r1, [r3, #0]
    32ae:	2106      	movs	r1, #6
    32b0:	781c      	ldrb	r4, [r3, #0]
    32b2:	4321      	orrs	r1, r4
    32b4:	7019      	strb	r1, [r3, #0]
    32b6:	4938      	ldr	r1, [pc, #224]	; (3398 <_ZN14USBDeviceClass4initEv+0x10c>)
    32b8:	780c      	ldrb	r4, [r1, #0]
    32ba:	4322      	orrs	r2, r4
    32bc:	700a      	strb	r2, [r1, #0]
    32be:	781a      	ldrb	r2, [r3, #0]
    32c0:	4002      	ands	r2, r0
    32c2:	701a      	strb	r2, [r3, #0]
    32c4:	2260      	movs	r2, #96	; 0x60
    32c6:	7819      	ldrb	r1, [r3, #0]
    32c8:	430a      	orrs	r2, r1
    32ca:	701a      	strb	r2, [r3, #0]
    32cc:	4b33      	ldr	r3, [pc, #204]	; (339c <_ZN14USBDeviceClass4initEv+0x110>)
    32ce:	4a34      	ldr	r2, [pc, #208]	; (33a0 <_ZN14USBDeviceClass4initEv+0x114>)
    32d0:	805a      	strh	r2, [r3, #2]
    32d2:	785f      	ldrb	r7, [r3, #1]
    32d4:	09ff      	lsrs	r7, r7, #7
    32d6:	d1fc      	bne.n	32d2 <_ZN14USBDeviceClass4initEv+0x46>
    32d8:	4832      	ldr	r0, [pc, #200]	; (33a4 <_ZN14USBDeviceClass4initEv+0x118>)
    32da:	f7ff f947 	bl	256c <USB_SetHandler>
    32de:	4e32      	ldr	r6, [pc, #200]	; (33a8 <_ZN14USBDeviceClass4initEv+0x11c>)
    32e0:	2301      	movs	r3, #1
    32e2:	0030      	movs	r0, r6
    32e4:	c810      	ldmia	r0!, {r4}
    32e6:	0039      	movs	r1, r7
    32e8:	7822      	ldrb	r2, [r4, #0]
    32ea:	4313      	orrs	r3, r2
    32ec:	2280      	movs	r2, #128	; 0x80
    32ee:	7023      	strb	r3, [r4, #0]
    32f0:	0052      	lsls	r2, r2, #1
    32f2:	f001 fb64 	bl	49be <memset>
    32f6:	78a3      	ldrb	r3, [r4, #2]
    32f8:	07db      	lsls	r3, r3, #31
    32fa:	d4fc      	bmi.n	32f6 <_ZN14USBDeviceClass4initEv+0x6a>
    32fc:	201f      	movs	r0, #31
    32fe:	3604      	adds	r6, #4
    3300:	4b2a      	ldr	r3, [pc, #168]	; (33ac <_ZN14USBDeviceClass4initEv+0x120>)
    3302:	6266      	str	r6, [r4, #36]	; 0x24
    3304:	681b      	ldr	r3, [r3, #0]
    3306:	0b5a      	lsrs	r2, r3, #13
    3308:	0c99      	lsrs	r1, r3, #18
    330a:	019b      	lsls	r3, r3, #6
    330c:	4002      	ands	r2, r0
    330e:	4001      	ands	r1, r0
    3310:	0f5b      	lsrs	r3, r3, #29
    3312:	4282      	cmp	r2, r0
    3314:	d100      	bne.n	3318 <_ZN14USBDeviceClass4initEv+0x8c>
    3316:	2205      	movs	r2, #5
    3318:	291f      	cmp	r1, #31
    331a:	d100      	bne.n	331e <_ZN14USBDeviceClass4initEv+0x92>
    331c:	3902      	subs	r1, #2
    331e:	2b07      	cmp	r3, #7
    3320:	d100      	bne.n	3324 <_ZN14USBDeviceClass4initEv+0x98>
    3322:	3b04      	subs	r3, #4
    3324:	8d26      	ldrh	r6, [r4, #40]	; 0x28
    3326:	4f22      	ldr	r7, [pc, #136]	; (33b0 <_ZN14USBDeviceClass4initEv+0x124>)
    3328:	4002      	ands	r2, r0
    332a:	403e      	ands	r6, r7
    332c:	0192      	lsls	r2, r2, #6
    332e:	4332      	orrs	r2, r6
    3330:	8522      	strh	r2, [r4, #40]	; 0x28
    3332:	8d22      	ldrh	r2, [r4, #40]	; 0x28
    3334:	4001      	ands	r1, r0
    3336:	4382      	bics	r2, r0
    3338:	000e      	movs	r6, r1
    333a:	0011      	movs	r1, r2
    333c:	4331      	orrs	r1, r6
    333e:	8521      	strh	r1, [r4, #40]	; 0x28
    3340:	8d22      	ldrh	r2, [r4, #40]	; 0x28
    3342:	0319      	lsls	r1, r3, #12
    3344:	4b1b      	ldr	r3, [pc, #108]	; (33b4 <_ZN14USBDeviceClass4initEv+0x128>)
    3346:	481c      	ldr	r0, [pc, #112]	; (33b8 <_ZN14USBDeviceClass4initEv+0x12c>)
    3348:	4013      	ands	r3, r2
    334a:	227f      	movs	r2, #127	; 0x7f
    334c:	430b      	orrs	r3, r1
    334e:	8523      	strh	r3, [r4, #40]	; 0x28
    3350:	7823      	ldrb	r3, [r4, #0]
    NVIC->IP[_IP_IDX(IRQn)]  = ((uint32_t)(NVIC->IP[_IP_IDX(IRQn)]  & ~(0xFFUL << _BIT_SHIFT(IRQn))) |
    3352:	21c1      	movs	r1, #193	; 0xc1
    3354:	4013      	ands	r3, r2
    3356:	7023      	strb	r3, [r4, #0]
    3358:	2304      	movs	r3, #4
    335a:	7822      	ldrb	r2, [r4, #0]
    335c:	0089      	lsls	r1, r1, #2
    335e:	4313      	orrs	r3, r2
    3360:	220c      	movs	r2, #12
    3362:	7023      	strb	r3, [r4, #0]
    3364:	8923      	ldrh	r3, [r4, #8]
    3366:	4393      	bics	r3, r2
    3368:	4a14      	ldr	r2, [pc, #80]	; (33bc <_ZN14USBDeviceClass4initEv+0x130>)
    336a:	8123      	strh	r3, [r4, #8]
    336c:	5853      	ldr	r3, [r2, r1]
    336e:	021b      	lsls	r3, r3, #8
    3370:	0a1b      	lsrs	r3, r3, #8
    3372:	5053      	str	r3, [r2, r1]
    NVIC->ISER[0U] = (uint32_t)(1UL << (((uint32_t)IRQn) & 0x1FUL));
    3374:	2380      	movs	r3, #128	; 0x80
    3376:	6013      	str	r3, [r2, #0]
    3378:	7822      	ldrb	r2, [r4, #0]
    337a:	3b7e      	subs	r3, #126	; 0x7e
    337c:	4313      	orrs	r3, r2
    337e:	7023      	strb	r3, [r4, #0]
    3380:	2301      	movs	r3, #1
    3382:	2100      	movs	r1, #0
    3384:	702b      	strb	r3, [r5, #0]
    3386:	f7ff fc75 	bl	2c74 <_ZN7Serial_5beginEm>
    338a:	bdf8      	pop	{r3, r4, r5, r6, r7, pc}
    338c:	40000400 	.word	0x40000400
    3390:	41004458 	.word	0x41004458
    3394:	4100443c 	.word	0x4100443c
    3398:	41004459 	.word	0x41004459
    339c:	40000c00 	.word	0x40000c00
    33a0:	00004006 	.word	0x00004006
    33a4:	00003d11 	.word	0x00003d11
    33a8:	20000e24 	.word	0x20000e24
    33ac:	00806024 	.word	0x00806024
    33b0:	fffff83f 	.word	0xfffff83f
    33b4:	ffff8fff 	.word	0xffff8fff
    33b8:	20000904 	.word	0x20000904
    33bc:	e000e100 	.word	0xe000e100

000033c0 <_ZN14USBDeviceClass6attachEv>:
    33c0:	7800      	ldrb	r0, [r0, #0]
    33c2:	2800      	cmp	r0, #0
    33c4:	d010      	beq.n	33e8 <_ZN14USBDeviceClass6attachEv+0x28>
    33c6:	2101      	movs	r1, #1
    33c8:	4b08      	ldr	r3, [pc, #32]	; (33ec <_ZN14USBDeviceClass6attachEv+0x2c>)
    33ca:	681b      	ldr	r3, [r3, #0]
    33cc:	891a      	ldrh	r2, [r3, #8]
    33ce:	438a      	bics	r2, r1
    33d0:	811a      	strh	r2, [r3, #8]
    33d2:	2208      	movs	r2, #8
    33d4:	8b19      	ldrh	r1, [r3, #24]
    33d6:	430a      	orrs	r2, r1
    33d8:	831a      	strh	r2, [r3, #24]
    33da:	2204      	movs	r2, #4
    33dc:	8b19      	ldrh	r1, [r3, #24]
    33de:	430a      	orrs	r2, r1
    33e0:	831a      	strh	r2, [r3, #24]
    33e2:	2200      	movs	r2, #0
    33e4:	4b02      	ldr	r3, [pc, #8]	; (33f0 <_ZN14USBDeviceClass6attachEv+0x30>)
    33e6:	601a      	str	r2, [r3, #0]
    33e8:	4770      	bx	lr
    33ea:	46c0      	nop			; (mov r8, r8)
    33ec:	20000e24 	.word	0x20000e24
    33f0:	20000e1c 	.word	0x20000e1c

000033f4 <_ZN14USBDeviceClass10setAddressEm>:
    33f4:	b510      	push	{r4, lr}
    33f6:	4a0f      	ldr	r2, [pc, #60]	; (3434 <_ZN14USBDeviceClass10setAddressEm+0x40>)
    33f8:	6993      	ldr	r3, [r2, #24]
    33fa:	0b9b      	lsrs	r3, r3, #14
    33fc:	039b      	lsls	r3, r3, #14
    33fe:	6193      	str	r3, [r2, #24]
    3400:	6813      	ldr	r3, [r2, #0]
    3402:	2202      	movs	r2, #2
    3404:	33ff      	adds	r3, #255	; 0xff
    3406:	721a      	strb	r2, [r3, #8]
    3408:	7998      	ldrb	r0, [r3, #6]
    340a:	3a82      	subs	r2, #130	; 0x82
    340c:	4302      	orrs	r2, r0
    340e:	719a      	strb	r2, [r3, #6]
    3410:	7a1a      	ldrb	r2, [r3, #8]
    3412:	0792      	lsls	r2, r2, #30
    3414:	d5fc      	bpl.n	3410 <_ZN14USBDeviceClass10setAddressEm+0x1c>
    3416:	247f      	movs	r4, #127	; 0x7f
    3418:	4a07      	ldr	r2, [pc, #28]	; (3438 <_ZN14USBDeviceClass10setAddressEm+0x44>)
    341a:	4021      	ands	r1, r4
    341c:	7a93      	ldrb	r3, [r2, #10]
    341e:	0008      	movs	r0, r1
    3420:	43a3      	bics	r3, r4
    3422:	0019      	movs	r1, r3
    3424:	2380      	movs	r3, #128	; 0x80
    3426:	4301      	orrs	r1, r0
    3428:	7291      	strb	r1, [r2, #10]
    342a:	7a91      	ldrb	r1, [r2, #10]
    342c:	425b      	negs	r3, r3
    342e:	430b      	orrs	r3, r1
    3430:	7293      	strb	r3, [r2, #10]
    3432:	bd10      	pop	{r4, pc}
    3434:	20000e24 	.word	0x20000e24
    3438:	41005000 	.word	0x41005000

0000343c <_ZN14USBDeviceClass25handleClassInterfaceSetupER8USBSetup>:
    343c:	b510      	push	{r4, lr}
    343e:	000c      	movs	r4, r1
    3440:	f7ff fca4 	bl	2d8c <_Z12PluggableUSBv>
    3444:	0021      	movs	r1, r4
    3446:	f7ff fc58 	bl	2cfa <_ZN13PluggableUSB_5setupER8USBSetup>
    344a:	2800      	cmp	r0, #0
    344c:	d104      	bne.n	3458 <_ZN14USBDeviceClass25handleClassInterfaceSetupER8USBSetup+0x1c>
    344e:	4a03      	ldr	r2, [pc, #12]	; (345c <_ZN14USBDeviceClass25handleClassInterfaceSetupER8USBSetup+0x20>)
    3450:	6993      	ldr	r3, [r2, #24]
    3452:	0b9b      	lsrs	r3, r3, #14
    3454:	039b      	lsls	r3, r3, #14
    3456:	6193      	str	r3, [r2, #24]
    3458:	bd10      	pop	{r4, pc}
    345a:	46c0      	nop			; (mov r8, r8)
    345c:	20000e24 	.word	0x20000e24

00003460 <_ZN14USBDeviceClass6initEPEmm>:
    3460:	b5f8      	push	{r3, r4, r5, r6, r7, lr}
    3462:	000d      	movs	r5, r1
    3464:	2a83      	cmp	r2, #131	; 0x83
    3466:	d119      	bne.n	349c <_ZN14USBDeviceClass6initEPEmm+0x3c>
    3468:	b2cb      	uxtb	r3, r1
    346a:	4c39      	ldr	r4, [pc, #228]	; (3550 <_ZN14USBDeviceClass6initEPEmm+0xf0>)
    346c:	015a      	lsls	r2, r3, #5
    346e:	18a2      	adds	r2, r4, r2
    3470:	6991      	ldr	r1, [r2, #24]
    3472:	4838      	ldr	r0, [pc, #224]	; (3554 <_ZN14USBDeviceClass6initEPEmm+0xf4>)
    3474:	01ad      	lsls	r5, r5, #6
    3476:	4008      	ands	r0, r1
    3478:	21c0      	movs	r1, #192	; 0xc0
    347a:	0589      	lsls	r1, r1, #22
    347c:	4301      	orrs	r1, r0
    347e:	6191      	str	r1, [r2, #24]
    3480:	4935      	ldr	r1, [pc, #212]	; (3558 <_ZN14USBDeviceClass6initEPEmm+0xf8>)
    3482:	6820      	ldr	r0, [r4, #0]
    3484:	194d      	adds	r5, r1, r5
    3486:	2170      	movs	r1, #112	; 0x70
    3488:	3308      	adds	r3, #8
    348a:	6155      	str	r5, [r2, #20]
    348c:	015b      	lsls	r3, r3, #5
    348e:	5c1a      	ldrb	r2, [r3, r0]
    3490:	438a      	bics	r2, r1
    3492:	0011      	movs	r1, r2
    3494:	2240      	movs	r2, #64	; 0x40
    3496:	430a      	orrs	r2, r1
    3498:	541a      	strb	r2, [r3, r0]
    349a:	bdf8      	pop	{r3, r4, r5, r6, r7, pc}
    349c:	2a02      	cmp	r2, #2
    349e:	d152      	bne.n	3546 <_ZN14USBDeviceClass6initEPEmm+0xe6>
    34a0:	4a2e      	ldr	r2, [pc, #184]	; (355c <_ZN14USBDeviceClass6initEPEmm+0xfc>)
    34a2:	008b      	lsls	r3, r1, #2
    34a4:	5898      	ldr	r0, [r3, r2]
    34a6:	2800      	cmp	r0, #0
    34a8:	d002      	beq.n	34b0 <_ZN14USBDeviceClass6initEPEmm+0x50>
    34aa:	6803      	ldr	r3, [r0, #0]
    34ac:	695b      	ldr	r3, [r3, #20]
    34ae:	4798      	blx	r3
    34b0:	20da      	movs	r0, #218	; 0xda
    34b2:	0040      	lsls	r0, r0, #1
    34b4:	f000 fe2e 	bl	4114 <_Znwj>
    34b8:	2280      	movs	r2, #128	; 0x80
    34ba:	0004      	movs	r4, r0
    34bc:	4e24      	ldr	r6, [pc, #144]	; (3550 <_ZN14USBDeviceClass6initEPEmm+0xf0>)
    34be:	4b28      	ldr	r3, [pc, #160]	; (3560 <_ZN14USBDeviceClass6initEPEmm+0x100>)
    34c0:	6046      	str	r6, [r0, #4]
    34c2:	6003      	str	r3, [r0, #0]
    34c4:	0052      	lsls	r2, r2, #1
    34c6:	2100      	movs	r1, #0
    34c8:	3008      	adds	r0, #8
    34ca:	f001 fa78 	bl	49be <memset>
    34ce:	0022      	movs	r2, r4
    34d0:	2300      	movs	r3, #0
    34d2:	32fc      	adds	r2, #252	; 0xfc
    34d4:	60d3      	str	r3, [r2, #12]
    34d6:	6155      	str	r5, [r2, #20]
    34d8:	6113      	str	r3, [r2, #16]
    34da:	6613      	str	r3, [r2, #96]	; 0x60
    34dc:	6193      	str	r3, [r2, #24]
    34de:	61d3      	str	r3, [r2, #28]
    34e0:	6653      	str	r3, [r2, #100]	; 0x64
    34e2:	22b2      	movs	r2, #178	; 0xb2
    34e4:	0052      	lsls	r2, r2, #1
    34e6:	54a3      	strb	r3, [r4, r2]
    34e8:	3244      	adds	r2, #68	; 0x44
    34ea:	50a3      	str	r3, [r4, r2]
    34ec:	3204      	adds	r2, #4
    34ee:	50a3      	str	r3, [r4, r2]
    34f0:	3204      	adds	r2, #4
    34f2:	54a3      	strb	r3, [r4, r2]
    34f4:	22b2      	movs	r2, #178	; 0xb2
    34f6:	32ff      	adds	r2, #255	; 0xff
    34f8:	54a3      	strb	r3, [r4, r2]
    34fa:	b2ea      	uxtb	r2, r5
    34fc:	0150      	lsls	r0, r2, #5
    34fe:	1831      	adds	r1, r6, r0
    3500:	688b      	ldr	r3, [r1, #8]
    3502:	4f14      	ldr	r7, [pc, #80]	; (3554 <_ZN14USBDeviceClass6initEPEmm+0xf4>)
    3504:	3208      	adds	r2, #8
    3506:	401f      	ands	r7, r3
    3508:	23c0      	movs	r3, #192	; 0xc0
    350a:	059b      	lsls	r3, r3, #22
    350c:	433b      	orrs	r3, r7
    350e:	2707      	movs	r7, #7
    3510:	608b      	str	r3, [r1, #8]
    3512:	6833      	ldr	r3, [r6, #0]
    3514:	0152      	lsls	r2, r2, #5
    3516:	5cd6      	ldrb	r6, [r2, r3]
    3518:	00ad      	lsls	r5, r5, #2
    351a:	43be      	bics	r6, r7
    351c:	46b4      	mov	ip, r6
    351e:	2603      	movs	r6, #3
    3520:	4667      	mov	r7, ip
    3522:	433e      	orrs	r6, r7
    3524:	54d6      	strb	r6, [r2, r3]
    3526:	0022      	movs	r2, r4
    3528:	321d      	adds	r2, #29
    352a:	32ff      	adds	r2, #255	; 0xff
    352c:	604a      	str	r2, [r1, #4]
    352e:	2201      	movs	r2, #1
    3530:	181b      	adds	r3, r3, r0
    3532:	33ff      	adds	r3, #255	; 0xff
    3534:	7a99      	ldrb	r1, [r3, #10]
    3536:	0020      	movs	r0, r4
    3538:	430a      	orrs	r2, r1
    353a:	729a      	strb	r2, [r3, #10]
    353c:	f7ff fce6 	bl	2f0c <_ZN26DoubleBufferedEPOutHandler7releaseEv>
    3540:	4b06      	ldr	r3, [pc, #24]	; (355c <_ZN14USBDeviceClass6initEPEmm+0xfc>)
    3542:	515c      	str	r4, [r3, r5]
    3544:	e7a9      	b.n	349a <_ZN14USBDeviceClass6initEPEmm+0x3a>
    3546:	0011      	movs	r1, r2
    3548:	0028      	movs	r0, r5
    354a:	f7ff fc37 	bl	2dbc <_ZN14USBDeviceClass6initEPEmm.part.7>
    354e:	e7a4      	b.n	349a <_ZN14USBDeviceClass6initEPEmm+0x3a>
    3550:	20000e24 	.word	0x20000e24
    3554:	8fffffff 	.word	0x8fffffff
    3558:	20000998 	.word	0x20000998
    355c:	20000970 	.word	0x20000970
    3560:	00004c10 	.word	0x00004c10

00003564 <_ZN14USBDeviceClass13initEndpointsEv>:
    3564:	b570      	push	{r4, r5, r6, lr}
    3566:	0005      	movs	r5, r0
    3568:	2401      	movs	r4, #1
    356a:	4b06      	ldr	r3, [pc, #24]	; (3584 <_ZN14USBDeviceClass13initEndpointsEv+0x20>)
    356c:	00a2      	lsls	r2, r4, #2
    356e:	58d2      	ldr	r2, [r2, r3]
    3570:	2a00      	cmp	r2, #0
    3572:	d006      	beq.n	3582 <_ZN14USBDeviceClass13initEndpointsEv+0x1e>
    3574:	0021      	movs	r1, r4
    3576:	0028      	movs	r0, r5
    3578:	3401      	adds	r4, #1
    357a:	f7ff ff71 	bl	3460 <_ZN14USBDeviceClass6initEPEmm>
    357e:	2c0a      	cmp	r4, #10
    3580:	d1f3      	bne.n	356a <_ZN14USBDeviceClass13initEndpointsEv+0x6>
    3582:	bd70      	pop	{r4, r5, r6, pc}
    3584:	20000944 	.word	0x20000944

00003588 <_ZN14USBDeviceClass5clearEm>:
    3588:	4b0b      	ldr	r3, [pc, #44]	; (35b8 <_ZN14USBDeviceClass5clearEm+0x30>)
    358a:	b2ca      	uxtb	r2, r1
    358c:	480b      	ldr	r0, [pc, #44]	; (35bc <_ZN14USBDeviceClass5clearEm+0x34>)
    358e:	0189      	lsls	r1, r1, #6
    3590:	1859      	adds	r1, r3, r1
    3592:	0153      	lsls	r3, r2, #5
    3594:	18c3      	adds	r3, r0, r3
    3596:	6159      	str	r1, [r3, #20]
    3598:	6999      	ldr	r1, [r3, #24]
    359a:	3208      	adds	r2, #8
    359c:	0b89      	lsrs	r1, r1, #14
    359e:	0389      	lsls	r1, r1, #14
    35a0:	6199      	str	r1, [r3, #24]
    35a2:	6803      	ldr	r3, [r0, #0]
    35a4:	0152      	lsls	r2, r2, #5
    35a6:	189a      	adds	r2, r3, r2
    35a8:	2302      	movs	r3, #2
    35aa:	71d3      	strb	r3, [r2, #7]
    35ac:	7951      	ldrb	r1, [r2, #5]
    35ae:	3b82      	subs	r3, #130	; 0x82
    35b0:	430b      	orrs	r3, r1
    35b2:	7153      	strb	r3, [r2, #5]
    35b4:	4770      	bx	lr
    35b6:	46c0      	nop			; (mov r8, r8)
    35b8:	20000998 	.word	0x20000998
    35bc:	20000e24 	.word	0x20000e24

000035c0 <_ZN14USBDeviceClass9availableEm>:
    35c0:	4b08      	ldr	r3, [pc, #32]	; (35e4 <_ZN14USBDeviceClass9availableEm+0x24>)
    35c2:	008a      	lsls	r2, r1, #2
    35c4:	58d0      	ldr	r0, [r2, r3]
    35c6:	b510      	push	{r4, lr}
    35c8:	2800      	cmp	r0, #0
    35ca:	d003      	beq.n	35d4 <_ZN14USBDeviceClass9availableEm+0x14>
    35cc:	6803      	ldr	r3, [r0, #0]
    35ce:	689b      	ldr	r3, [r3, #8]
    35d0:	4798      	blx	r3
    35d2:	bd10      	pop	{r4, pc}
    35d4:	b2c9      	uxtb	r1, r1
    35d6:	4b04      	ldr	r3, [pc, #16]	; (35e8 <_ZN14USBDeviceClass9availableEm+0x28>)
    35d8:	0149      	lsls	r1, r1, #5
    35da:	1859      	adds	r1, r3, r1
    35dc:	6888      	ldr	r0, [r1, #8]
    35de:	0480      	lsls	r0, r0, #18
    35e0:	0c80      	lsrs	r0, r0, #18
    35e2:	e7f6      	b.n	35d2 <_ZN14USBDeviceClass9availableEm+0x12>
    35e4:	20000970 	.word	0x20000970
    35e8:	20000e24 	.word	0x20000e24

000035ec <_ZN14USBDeviceClass5flushEm>:
    35ec:	b510      	push	{r4, lr}
    35ee:	000c      	movs	r4, r1
    35f0:	f7ff ffe6 	bl	35c0 <_ZN14USBDeviceClass9availableEm>
    35f4:	2800      	cmp	r0, #0
    35f6:	d00c      	beq.n	3612 <_ZN14USBDeviceClass5flushEm+0x26>
    35f8:	4b06      	ldr	r3, [pc, #24]	; (3614 <_ZN14USBDeviceClass5flushEm+0x28>)
    35fa:	b2e4      	uxtb	r4, r4
    35fc:	681b      	ldr	r3, [r3, #0]
    35fe:	3408      	adds	r4, #8
    3600:	0164      	lsls	r4, r4, #5
    3602:	191c      	adds	r4, r3, r4
    3604:	2380      	movs	r3, #128	; 0x80
    3606:	7962      	ldrb	r2, [r4, #5]
    3608:	425b      	negs	r3, r3
    360a:	4313      	orrs	r3, r2
    360c:	7163      	strb	r3, [r4, #5]
    360e:	2302      	movs	r3, #2
    3610:	71e3      	strb	r3, [r4, #7]
    3612:	bd10      	pop	{r4, pc}
    3614:	20000e24 	.word	0x20000e24

00003618 <_ZN14USBDeviceClass4recvEmPvm>:
    3618:	b5f0      	push	{r4, r5, r6, r7, lr}
    361a:	001c      	movs	r4, r3
    361c:	4b2b      	ldr	r3, [pc, #172]	; (36cc <_ZN14USBDeviceClass4recvEmPvm+0xb4>)
    361e:	b085      	sub	sp, #20
    3620:	681b      	ldr	r3, [r3, #0]
    3622:	0007      	movs	r7, r0
    3624:	000d      	movs	r5, r1
    3626:	9202      	str	r2, [sp, #8]
    3628:	2b00      	cmp	r3, #0
    362a:	d04b      	beq.n	36c4 <_ZN14USBDeviceClass4recvEmPvm+0xac>
    362c:	4b28      	ldr	r3, [pc, #160]	; (36d0 <_ZN14USBDeviceClass4recvEmPvm+0xb8>)
    362e:	008a      	lsls	r2, r1, #2
    3630:	58d0      	ldr	r0, [r2, r3]
    3632:	2800      	cmp	r0, #0
    3634:	d008      	beq.n	3648 <_ZN14USBDeviceClass4recvEmPvm+0x30>
    3636:	6803      	ldr	r3, [r0, #0]
    3638:	0022      	movs	r2, r4
    363a:	685b      	ldr	r3, [r3, #4]
    363c:	9902      	ldr	r1, [sp, #8]
    363e:	4798      	blx	r3
    3640:	0004      	movs	r4, r0
    3642:	0020      	movs	r0, r4
    3644:	b005      	add	sp, #20
    3646:	bdf0      	pop	{r4, r5, r6, r7, pc}
    3648:	0038      	movs	r0, r7
    364a:	f7ff ffb9 	bl	35c0 <_ZN14USBDeviceClass9availableEm>
    364e:	4284      	cmp	r4, r0
    3650:	d904      	bls.n	365c <_ZN14USBDeviceClass4recvEmPvm+0x44>
    3652:	0029      	movs	r1, r5
    3654:	0038      	movs	r0, r7
    3656:	f7ff ffb3 	bl	35c0 <_ZN14USBDeviceClass9availableEm>
    365a:	0004      	movs	r4, r0
    365c:	2101      	movs	r1, #1
    365e:	b2eb      	uxtb	r3, r5
    3660:	4e1c      	ldr	r6, [pc, #112]	; (36d4 <_ZN14USBDeviceClass4recvEmPvm+0xbc>)
    3662:	9303      	str	r3, [sp, #12]
    3664:	015b      	lsls	r3, r3, #5
    3666:	9301      	str	r3, [sp, #4]
    3668:	18f2      	adds	r2, r6, r3
    366a:	6893      	ldr	r3, [r2, #8]
    366c:	0b9b      	lsrs	r3, r3, #14
    366e:	039b      	lsls	r3, r3, #14
    3670:	6093      	str	r3, [r2, #8]
    3672:	9a01      	ldr	r2, [sp, #4]
    3674:	6833      	ldr	r3, [r6, #0]
    3676:	9802      	ldr	r0, [sp, #8]
    3678:	189b      	adds	r3, r3, r2
    367a:	33ff      	adds	r3, #255	; 0xff
    367c:	7a5a      	ldrb	r2, [r3, #9]
    367e:	430a      	orrs	r2, r1
    3680:	4915      	ldr	r1, [pc, #84]	; (36d8 <_ZN14USBDeviceClass4recvEmPvm+0xc0>)
    3682:	725a      	strb	r2, [r3, #9]
    3684:	01ab      	lsls	r3, r5, #6
    3686:	18c9      	adds	r1, r1, r3
    3688:	0022      	movs	r2, r4
    368a:	f001 f98f 	bl	49ac <memcpy>
    368e:	2c00      	cmp	r4, #0
    3690:	d0d7      	beq.n	3642 <_ZN14USBDeviceClass4recvEmPvm+0x2a>
    3692:	0029      	movs	r1, r5
    3694:	0038      	movs	r0, r7
    3696:	f7ff ff93 	bl	35c0 <_ZN14USBDeviceClass9availableEm>
    369a:	2800      	cmp	r0, #0
    369c:	d1d1      	bne.n	3642 <_ZN14USBDeviceClass4recvEmPvm+0x2a>
    369e:	2140      	movs	r1, #64	; 0x40
    36a0:	9b03      	ldr	r3, [sp, #12]
    36a2:	6832      	ldr	r2, [r6, #0]
    36a4:	3308      	adds	r3, #8
    36a6:	015b      	lsls	r3, r3, #5
    36a8:	18d3      	adds	r3, r2, r3
    36aa:	7918      	ldrb	r0, [r3, #4]
    36ac:	4301      	orrs	r1, r0
    36ae:	7119      	strb	r1, [r3, #4]
    36b0:	2101      	movs	r1, #1
    36b2:	71d9      	strb	r1, [r3, #7]
    36b4:	2101      	movs	r1, #1
    36b6:	9b01      	ldr	r3, [sp, #4]
    36b8:	18d3      	adds	r3, r2, r3
    36ba:	33ff      	adds	r3, #255	; 0xff
    36bc:	7a9a      	ldrb	r2, [r3, #10]
    36be:	430a      	orrs	r2, r1
    36c0:	729a      	strb	r2, [r3, #10]
    36c2:	e7be      	b.n	3642 <_ZN14USBDeviceClass4recvEmPvm+0x2a>
    36c4:	2401      	movs	r4, #1
    36c6:	4264      	negs	r4, r4
    36c8:	e7bb      	b.n	3642 <_ZN14USBDeviceClass4recvEmPvm+0x2a>
    36ca:	46c0      	nop			; (mov r8, r8)
    36cc:	20000e1c 	.word	0x20000e1c
    36d0:	20000970 	.word	0x20000970
    36d4:	20000e24 	.word	0x20000e24
    36d8:	20000b58 	.word	0x20000b58

000036dc <_ZN14USBDeviceClass4recvEm>:
    36dc:	b513      	push	{r0, r1, r4, lr}
    36de:	466b      	mov	r3, sp
    36e0:	1ddc      	adds	r4, r3, #7
    36e2:	0022      	movs	r2, r4
    36e4:	2301      	movs	r3, #1
    36e6:	f7ff ff97 	bl	3618 <_ZN14USBDeviceClass4recvEmPvm>
    36ea:	2801      	cmp	r0, #1
    36ec:	d101      	bne.n	36f2 <_ZN14USBDeviceClass4recvEm+0x16>
    36ee:	7820      	ldrb	r0, [r4, #0]
    36f0:	bd16      	pop	{r1, r2, r4, pc}
    36f2:	2001      	movs	r0, #1
    36f4:	4240      	negs	r0, r0
    36f6:	e7fb      	b.n	36f0 <_ZN14USBDeviceClass4recvEm+0x14>

000036f8 <_ZN14USBDeviceClass14armRecvCtrlOUTEm>:
    36f8:	b570      	push	{r4, r5, r6, lr}
    36fa:	4b13      	ldr	r3, [pc, #76]	; (3748 <_ZN14USBDeviceClass14armRecvCtrlOUTEm+0x50>)
    36fc:	b2cc      	uxtb	r4, r1
    36fe:	4a13      	ldr	r2, [pc, #76]	; (374c <_ZN14USBDeviceClass14armRecvCtrlOUTEm+0x54>)
    3700:	0160      	lsls	r0, r4, #5
    3702:	0189      	lsls	r1, r1, #6
    3704:	1859      	adds	r1, r3, r1
    3706:	1813      	adds	r3, r2, r0
    3708:	6059      	str	r1, [r3, #4]
    370a:	6899      	ldr	r1, [r3, #8]
    370c:	4d10      	ldr	r5, [pc, #64]	; (3750 <_ZN14USBDeviceClass14armRecvCtrlOUTEm+0x58>)
    370e:	3408      	adds	r4, #8
    3710:	400d      	ands	r5, r1
    3712:	2180      	movs	r1, #128	; 0x80
    3714:	0349      	lsls	r1, r1, #13
    3716:	4329      	orrs	r1, r5
    3718:	2540      	movs	r5, #64	; 0x40
    371a:	6099      	str	r1, [r3, #8]
    371c:	6899      	ldr	r1, [r3, #8]
    371e:	0b89      	lsrs	r1, r1, #14
    3720:	0389      	lsls	r1, r1, #14
    3722:	6099      	str	r1, [r3, #8]
    3724:	6811      	ldr	r1, [r2, #0]
    3726:	0163      	lsls	r3, r4, #5
    3728:	18cb      	adds	r3, r1, r3
    372a:	791e      	ldrb	r6, [r3, #4]
    372c:	4335      	orrs	r5, r6
    372e:	711d      	strb	r5, [r3, #4]
    3730:	799d      	ldrb	r5, [r3, #6]
    3732:	066d      	lsls	r5, r5, #25
    3734:	d5fc      	bpl.n	3730 <_ZN14USBDeviceClass14armRecvCtrlOUTEm+0x38>
    3736:	0164      	lsls	r4, r4, #5
    3738:	1909      	adds	r1, r1, r4
    373a:	79cb      	ldrb	r3, [r1, #7]
    373c:	07db      	lsls	r3, r3, #31
    373e:	d5fc      	bpl.n	373a <_ZN14USBDeviceClass14armRecvCtrlOUTEm+0x42>
    3740:	1812      	adds	r2, r2, r0
    3742:	6890      	ldr	r0, [r2, #8]
    3744:	b2c0      	uxtb	r0, r0
    3746:	bd70      	pop	{r4, r5, r6, pc}
    3748:	20000b58 	.word	0x20000b58
    374c:	20000e24 	.word	0x20000e24
    3750:	f0003fff 	.word	0xf0003fff

00003754 <_ZN14USBDeviceClass11recvControlEPvm>:
    3754:	b570      	push	{r4, r5, r6, lr}
    3756:	000d      	movs	r5, r1
    3758:	2100      	movs	r1, #0
    375a:	0014      	movs	r4, r2
    375c:	f7ff ffcc 	bl	36f8 <_ZN14USBDeviceClass14armRecvCtrlOUTEm>
    3760:	42a0      	cmp	r0, r4
    3762:	d900      	bls.n	3766 <_ZN14USBDeviceClass11recvControlEPvm+0x12>
    3764:	0020      	movs	r0, r4
    3766:	2300      	movs	r3, #0
    3768:	4903      	ldr	r1, [pc, #12]	; (3778 <_ZN14USBDeviceClass11recvControlEPvm+0x24>)
    376a:	42a3      	cmp	r3, r4
    376c:	d003      	beq.n	3776 <_ZN14USBDeviceClass11recvControlEPvm+0x22>
    376e:	5c5a      	ldrb	r2, [r3, r1]
    3770:	54ea      	strb	r2, [r5, r3]
    3772:	3301      	adds	r3, #1
    3774:	e7f9      	b.n	376a <_ZN14USBDeviceClass11recvControlEPvm+0x16>
    3776:	bd70      	pop	{r4, r5, r6, pc}
    3778:	20000b58 	.word	0x20000b58

0000377c <_ZN14USBDeviceClass4sendEmPKvm>:
    377c:	b5f0      	push	{r4, r5, r6, r7, lr}
    377e:	001e      	movs	r6, r3
    3780:	4b3a      	ldr	r3, [pc, #232]	; (386c <_ZN14USBDeviceClass4sendEmPKvm+0xf0>)
    3782:	b085      	sub	sp, #20
    3784:	681b      	ldr	r3, [r3, #0]
    3786:	000f      	movs	r7, r1
    3788:	9201      	str	r2, [sp, #4]
    378a:	2b00      	cmp	r3, #0
    378c:	d035      	beq.n	37fa <_ZN14USBDeviceClass4sendEmPKvm+0x7e>
    378e:	2380      	movs	r3, #128	; 0x80
    3790:	01db      	lsls	r3, r3, #7
    3792:	429e      	cmp	r6, r3
    3794:	d831      	bhi.n	37fa <_ZN14USBDeviceClass4sendEmPKvm+0x7e>
    3796:	2500      	movs	r5, #0
    3798:	4a35      	ldr	r2, [pc, #212]	; (3870 <_ZN14USBDeviceClass4sendEmPKvm+0xf4>)
    379a:	018b      	lsls	r3, r1, #6
    379c:	18d3      	adds	r3, r2, r3
    379e:	9302      	str	r3, [sp, #8]
    37a0:	2e00      	cmp	r6, #0
    37a2:	d02c      	beq.n	37fe <_ZN14USBDeviceClass4sendEmPKvm+0x82>
    37a4:	4b33      	ldr	r3, [pc, #204]	; (3874 <_ZN14USBDeviceClass4sendEmPKvm+0xf8>)
    37a6:	681b      	ldr	r3, [r3, #0]
    37a8:	9303      	str	r3, [sp, #12]
    37aa:	23ff      	movs	r3, #255	; 0xff
    37ac:	403b      	ands	r3, r7
    37ae:	001c      	movs	r4, r3
    37b0:	9300      	str	r3, [sp, #0]
    37b2:	3408      	adds	r4, #8
    37b4:	9b03      	ldr	r3, [sp, #12]
    37b6:	0164      	lsls	r4, r4, #5
    37b8:	191c      	adds	r4, r3, r4
    37ba:	79a3      	ldrb	r3, [r4, #6]
    37bc:	09db      	lsrs	r3, r3, #7
    37be:	d021      	beq.n	3804 <_ZN14USBDeviceClass4sendEmPKvm+0x88>
    37c0:	4b2d      	ldr	r3, [pc, #180]	; (3878 <_ZN14USBDeviceClass4sendEmPKvm+0xfc>)
    37c2:	492e      	ldr	r1, [pc, #184]	; (387c <_ZN14USBDeviceClass4sendEmPKvm+0x100>)
    37c4:	6818      	ldr	r0, [r3, #0]
    37c6:	f001 f82d 	bl	4824 <__udivsi3>
    37ca:	4b2d      	ldr	r3, [pc, #180]	; (3880 <_ZN14USBDeviceClass4sendEmPKvm+0x104>)
    37cc:	2117      	movs	r1, #23
    37ce:	4358      	muls	r0, r3
    37d0:	f001 f828 	bl	4824 <__udivsi3>
    37d4:	4b2b      	ldr	r3, [pc, #172]	; (3884 <_ZN14USBDeviceClass4sendEmPKvm+0x108>)
    37d6:	79e2      	ldrb	r2, [r4, #7]
    37d8:	0792      	lsls	r2, r2, #30
    37da:	d413      	bmi.n	3804 <_ZN14USBDeviceClass4sendEmPKvm+0x88>
    37dc:	5dda      	ldrb	r2, [r3, r7]
    37de:	2a00      	cmp	r2, #0
    37e0:	d101      	bne.n	37e6 <_ZN14USBDeviceClass4sendEmPKvm+0x6a>
    37e2:	3801      	subs	r0, #1
    37e4:	d2f7      	bcs.n	37d6 <_ZN14USBDeviceClass4sendEmPKvm+0x5a>
    37e6:	2201      	movs	r2, #1
    37e8:	55da      	strb	r2, [r3, r7]
    37ea:	9b00      	ldr	r3, [sp, #0]
    37ec:	4a21      	ldr	r2, [pc, #132]	; (3874 <_ZN14USBDeviceClass4sendEmPKvm+0xf8>)
    37ee:	015b      	lsls	r3, r3, #5
    37f0:	18d3      	adds	r3, r2, r3
    37f2:	699a      	ldr	r2, [r3, #24]
    37f4:	0b92      	lsrs	r2, r2, #14
    37f6:	0392      	lsls	r2, r2, #14
    37f8:	619a      	str	r2, [r3, #24]
    37fa:	2501      	movs	r5, #1
    37fc:	426d      	negs	r5, r5
    37fe:	0028      	movs	r0, r5
    3800:	b005      	add	sp, #20
    3802:	bdf0      	pop	{r4, r5, r6, r7, pc}
    3804:	2200      	movs	r2, #0
    3806:	4b1f      	ldr	r3, [pc, #124]	; (3884 <_ZN14USBDeviceClass4sendEmPKvm+0x108>)
    3808:	0034      	movs	r4, r6
    380a:	55da      	strb	r2, [r3, r7]
    380c:	2e3f      	cmp	r6, #63	; 0x3f
    380e:	d909      	bls.n	3824 <_ZN14USBDeviceClass4sendEmPKvm+0xa8>
    3810:	9b00      	ldr	r3, [sp, #0]
    3812:	2440      	movs	r4, #64	; 0x40
    3814:	015a      	lsls	r2, r3, #5
    3816:	4b17      	ldr	r3, [pc, #92]	; (3874 <_ZN14USBDeviceClass4sendEmPKvm+0xf8>)
    3818:	189b      	adds	r3, r3, r2
    381a:	2280      	movs	r2, #128	; 0x80
    381c:	6999      	ldr	r1, [r3, #24]
    381e:	0612      	lsls	r2, r2, #24
    3820:	430a      	orrs	r2, r1
    3822:	619a      	str	r2, [r3, #24]
    3824:	0022      	movs	r2, r4
    3826:	9901      	ldr	r1, [sp, #4]
    3828:	9802      	ldr	r0, [sp, #8]
    382a:	f001 f8bf 	bl	49ac <memcpy>
    382e:	9b00      	ldr	r3, [sp, #0]
    3830:	04a1      	lsls	r1, r4, #18
    3832:	015a      	lsls	r2, r3, #5
    3834:	4b0f      	ldr	r3, [pc, #60]	; (3874 <_ZN14USBDeviceClass4sendEmPKvm+0xf8>)
    3836:	0c89      	lsrs	r1, r1, #18
    3838:	189b      	adds	r3, r3, r2
    383a:	9a02      	ldr	r2, [sp, #8]
    383c:	192d      	adds	r5, r5, r4
    383e:	615a      	str	r2, [r3, #20]
    3840:	699a      	ldr	r2, [r3, #24]
    3842:	1b36      	subs	r6, r6, r4
    3844:	0b92      	lsrs	r2, r2, #14
    3846:	0392      	lsls	r2, r2, #14
    3848:	430a      	orrs	r2, r1
    384a:	619a      	str	r2, [r3, #24]
    384c:	9b00      	ldr	r3, [sp, #0]
    384e:	9a03      	ldr	r2, [sp, #12]
    3850:	3308      	adds	r3, #8
    3852:	015b      	lsls	r3, r3, #5
    3854:	18d3      	adds	r3, r2, r3
    3856:	2202      	movs	r2, #2
    3858:	71da      	strb	r2, [r3, #7]
    385a:	7959      	ldrb	r1, [r3, #5]
    385c:	3a82      	subs	r2, #130	; 0x82
    385e:	430a      	orrs	r2, r1
    3860:	715a      	strb	r2, [r3, #5]
    3862:	9b01      	ldr	r3, [sp, #4]
    3864:	191b      	adds	r3, r3, r4
    3866:	9301      	str	r3, [sp, #4]
    3868:	e79a      	b.n	37a0 <_ZN14USBDeviceClass4sendEmPKvm+0x24>
    386a:	46c0      	nop			; (mov r8, r8)
    386c:	20000e1c 	.word	0x20000e1c
    3870:	20000998 	.word	0x20000998
    3874:	20000e24 	.word	0x20000e24
    3878:	20000014 	.word	0x20000014
    387c:	000f4240 	.word	0x000f4240
    3880:	00011170 	.word	0x00011170
    3884:	2000098d 	.word	0x2000098d

00003888 <_ZN14USBDeviceClass7armSendEmPKvm>:
    3888:	b570      	push	{r4, r5, r6, lr}
    388a:	000d      	movs	r5, r1
    388c:	001c      	movs	r4, r3
    388e:	4e0d      	ldr	r6, [pc, #52]	; (38c4 <_ZN14USBDeviceClass7armSendEmPKvm+0x3c>)
    3890:	01ab      	lsls	r3, r5, #6
    3892:	18f6      	adds	r6, r6, r3
    3894:	0011      	movs	r1, r2
    3896:	0030      	movs	r0, r6
    3898:	0022      	movs	r2, r4
    389a:	f001 f887 	bl	49ac <memcpy>
    389e:	b2ed      	uxtb	r5, r5
    38a0:	4909      	ldr	r1, [pc, #36]	; (38c8 <_ZN14USBDeviceClass7armSendEmPKvm+0x40>)
    38a2:	016d      	lsls	r5, r5, #5
    38a4:	194d      	adds	r5, r1, r5
    38a6:	616e      	str	r6, [r5, #20]
    38a8:	69ab      	ldr	r3, [r5, #24]
    38aa:	4a08      	ldr	r2, [pc, #32]	; (38cc <_ZN14USBDeviceClass7armSendEmPKvm+0x44>)
    38ac:	0020      	movs	r0, r4
    38ae:	4013      	ands	r3, r2
    38b0:	61ab      	str	r3, [r5, #24]
    38b2:	69ab      	ldr	r3, [r5, #24]
    38b4:	04a2      	lsls	r2, r4, #18
    38b6:	0b9b      	lsrs	r3, r3, #14
    38b8:	0c92      	lsrs	r2, r2, #18
    38ba:	039b      	lsls	r3, r3, #14
    38bc:	4313      	orrs	r3, r2
    38be:	61ab      	str	r3, [r5, #24]
    38c0:	bd70      	pop	{r4, r5, r6, pc}
    38c2:	46c0      	nop			; (mov r8, r8)
    38c4:	20000998 	.word	0x20000998
    38c8:	20000e24 	.word	0x20000e24
    38cc:	f0003fff 	.word	0xf0003fff

000038d0 <_ZN14USBDeviceClass11sendControlEPKvm>:
    38d0:	b5f7      	push	{r0, r1, r2, r4, r5, r6, r7, lr}
    38d2:	4b10      	ldr	r3, [pc, #64]	; (3914 <_ZN14USBDeviceClass11sendControlEPKvm+0x44>)
    38d4:	9001      	str	r0, [sp, #4]
    38d6:	781b      	ldrb	r3, [r3, #0]
    38d8:	000f      	movs	r7, r1
    38da:	0015      	movs	r5, r2
    38dc:	2b00      	cmp	r3, #0
    38de:	d10c      	bne.n	38fa <_ZN14USBDeviceClass11sendControlEPKvm+0x2a>
    38e0:	4b0d      	ldr	r3, [pc, #52]	; (3918 <_ZN14USBDeviceClass11sendControlEPKvm+0x48>)
    38e2:	0016      	movs	r6, r2
    38e4:	781c      	ldrb	r4, [r3, #0]
    38e6:	2c00      	cmp	r4, #0
    38e8:	d009      	beq.n	38fe <_ZN14USBDeviceClass11sendControlEPKvm+0x2e>
    38ea:	4e0c      	ldr	r6, [pc, #48]	; (391c <_ZN14USBDeviceClass11sendControlEPKvm+0x4c>)
    38ec:	480c      	ldr	r0, [pc, #48]	; (3920 <_ZN14USBDeviceClass11sendControlEPKvm+0x50>)
    38ee:	8834      	ldrh	r4, [r6, #0]
    38f0:	1900      	adds	r0, r0, r4
    38f2:	1964      	adds	r4, r4, r5
    38f4:	f001 f85a 	bl	49ac <memcpy>
    38f8:	8034      	strh	r4, [r6, #0]
    38fa:	0028      	movs	r0, r5
    38fc:	bdfe      	pop	{r1, r2, r3, r4, r5, r6, r7, pc}
    38fe:	2e00      	cmp	r6, #0
    3900:	d0fb      	beq.n	38fa <_ZN14USBDeviceClass11sendControlEPKvm+0x2a>
    3902:	193a      	adds	r2, r7, r4
    3904:	0033      	movs	r3, r6
    3906:	2100      	movs	r1, #0
    3908:	9801      	ldr	r0, [sp, #4]
    390a:	f7ff ffbd 	bl	3888 <_ZN14USBDeviceClass7armSendEmPKvm>
    390e:	1824      	adds	r4, r4, r0
    3910:	1a36      	subs	r6, r6, r0
    3912:	e7f4      	b.n	38fe <_ZN14USBDeviceClass11sendControlEPKvm+0x2e>
    3914:	20000d18 	.word	0x20000d18
    3918:	20000e19 	.word	0x20000e19
    391c:	20000e1a 	.word	0x20000e1a
    3920:	20000d19 	.word	0x20000d19

00003924 <_ZN14USBDeviceClass20sendStringDescriptorEPKhm>:
    3924:	b5f8      	push	{r3, r4, r5, r6, r7, lr}
    3926:	000e      	movs	r6, r1
    3928:	0015      	movs	r5, r2
    392a:	2700      	movs	r7, #0
    392c:	2a01      	cmp	r2, #1
    392e:	d927      	bls.n	3980 <_ZN14USBDeviceClass20sendStringDescriptorEPKhm+0x5c>
    3930:	0010      	movs	r0, r2
    3932:	f001 f827 	bl	4984 <malloc>
    3936:	0004      	movs	r4, r0
    3938:	0030      	movs	r0, r6
    393a:	f001 f903 	bl	4b44 <strlen>
    393e:	3001      	adds	r0, #1
    3940:	0040      	lsls	r0, r0, #1
    3942:	2303      	movs	r3, #3
    3944:	7020      	strb	r0, [r4, #0]
    3946:	2202      	movs	r2, #2
    3948:	0038      	movs	r0, r7
    394a:	7063      	strb	r3, [r4, #1]
    394c:	4295      	cmp	r5, r2
    394e:	d90d      	bls.n	396c <_ZN14USBDeviceClass20sendStringDescriptorEPKhm+0x48>
    3950:	7831      	ldrb	r1, [r6, #0]
    3952:	2900      	cmp	r1, #0
    3954:	d00a      	beq.n	396c <_ZN14USBDeviceClass20sendStringDescriptorEPKhm+0x48>
    3956:	1c53      	adds	r3, r2, #1
    3958:	b2db      	uxtb	r3, r3
    395a:	3601      	adds	r6, #1
    395c:	54a1      	strb	r1, [r4, r2]
    395e:	429d      	cmp	r5, r3
    3960:	d003      	beq.n	396a <_ZN14USBDeviceClass20sendStringDescriptorEPKhm+0x46>
    3962:	3202      	adds	r2, #2
    3964:	54e0      	strb	r0, [r4, r3]
    3966:	b2d2      	uxtb	r2, r2
    3968:	e7f0      	b.n	394c <_ZN14USBDeviceClass20sendStringDescriptorEPKhm+0x28>
    396a:	002a      	movs	r2, r5
    396c:	0021      	movs	r1, r4
    396e:	4805      	ldr	r0, [pc, #20]	; (3984 <_ZN14USBDeviceClass20sendStringDescriptorEPKhm+0x60>)
    3970:	f7ff ffae 	bl	38d0 <_ZN14USBDeviceClass11sendControlEPKvm>
    3974:	1e47      	subs	r7, r0, #1
    3976:	41b8      	sbcs	r0, r7
    3978:	b2c7      	uxtb	r7, r0
    397a:	0020      	movs	r0, r4
    397c:	f001 f80c 	bl	4998 <free>
    3980:	0038      	movs	r0, r7
    3982:	bdf8      	pop	{r3, r4, r5, r6, r7, pc}
    3984:	2000096c 	.word	0x2000096c

00003988 <_ZN14USBDeviceClass17sendConfigurationEm>:
    3988:	b5f0      	push	{r4, r5, r6, r7, lr}
    398a:	2700      	movs	r7, #0
    398c:	2601      	movs	r6, #1
    398e:	b087      	sub	sp, #28
    3990:	4b1e      	ldr	r3, [pc, #120]	; (3a0c <_ZN14USBDeviceClass17sendConfigurationEm+0x84>)
    3992:	9100      	str	r1, [sp, #0]
    3994:	a902      	add	r1, sp, #8
    3996:	701e      	strb	r6, [r3, #0]
    3998:	0005      	movs	r5, r0
    399a:	9702      	str	r7, [sp, #8]
    399c:	f7ff fc65 	bl	326a <_ZN14USBDeviceClass14SendInterfacesEPm>
    39a0:	ac03      	add	r4, sp, #12
    39a2:	9001      	str	r0, [sp, #4]
    39a4:	2209      	movs	r2, #9
    39a6:	0039      	movs	r1, r7
    39a8:	0020      	movs	r0, r4
    39aa:	f001 f808 	bl	49be <memset>
    39ae:	2309      	movs	r3, #9
    39b0:	7023      	strb	r3, [r4, #0]
    39b2:	2302      	movs	r3, #2
    39b4:	7063      	strb	r3, [r4, #1]
    39b6:	339e      	adds	r3, #158	; 0x9e
    39b8:	71e3      	strb	r3, [r4, #7]
    39ba:	335a      	adds	r3, #90	; 0x5a
    39bc:	7223      	strb	r3, [r4, #8]
    39be:	9b02      	ldr	r3, [sp, #8]
    39c0:	7166      	strb	r6, [r4, #5]
    39c2:	3309      	adds	r3, #9
    39c4:	8063      	strh	r3, [r4, #2]
    39c6:	466b      	mov	r3, sp
    39c8:	791b      	ldrb	r3, [r3, #4]
    39ca:	7123      	strb	r3, [r4, #4]
    39cc:	4b0f      	ldr	r3, [pc, #60]	; (3a0c <_ZN14USBDeviceClass17sendConfigurationEm+0x84>)
    39ce:	701f      	strb	r7, [r3, #0]
    39d0:	9b00      	ldr	r3, [sp, #0]
    39d2:	2b09      	cmp	r3, #9
    39d4:	d107      	bne.n	39e6 <_ZN14USBDeviceClass17sendConfigurationEm+0x5e>
    39d6:	001a      	movs	r2, r3
    39d8:	0021      	movs	r1, r4
    39da:	0028      	movs	r0, r5
    39dc:	f7ff ff78 	bl	38d0 <_ZN14USBDeviceClass11sendControlEPKvm>
    39e0:	2001      	movs	r0, #1
    39e2:	b007      	add	sp, #28
    39e4:	bdf0      	pop	{r4, r5, r6, r7, pc}
    39e6:	4b0a      	ldr	r3, [pc, #40]	; (3a10 <_ZN14USBDeviceClass17sendConfigurationEm+0x88>)
    39e8:	2209      	movs	r2, #9
    39ea:	701e      	strb	r6, [r3, #0]
    39ec:	4e09      	ldr	r6, [pc, #36]	; (3a14 <_ZN14USBDeviceClass17sendConfigurationEm+0x8c>)
    39ee:	0021      	movs	r1, r4
    39f0:	0028      	movs	r0, r5
    39f2:	9702      	str	r7, [sp, #8]
    39f4:	8037      	strh	r7, [r6, #0]
    39f6:	f7ff ff6b 	bl	38d0 <_ZN14USBDeviceClass11sendControlEPKvm>
    39fa:	a902      	add	r1, sp, #8
    39fc:	0028      	movs	r0, r5
    39fe:	f7ff fc34 	bl	326a <_ZN14USBDeviceClass14SendInterfacesEPm>
    3a02:	4b03      	ldr	r3, [pc, #12]	; (3a10 <_ZN14USBDeviceClass17sendConfigurationEm+0x88>)
    3a04:	8832      	ldrh	r2, [r6, #0]
    3a06:	701f      	strb	r7, [r3, #0]
    3a08:	4903      	ldr	r1, [pc, #12]	; (3a18 <_ZN14USBDeviceClass17sendConfigurationEm+0x90>)
    3a0a:	e7e6      	b.n	39da <_ZN14USBDeviceClass17sendConfigurationEm+0x52>
    3a0c:	20000d18 	.word	0x20000d18
    3a10:	20000e19 	.word	0x20000e19
    3a14:	20000e1a 	.word	0x20000e1a
    3a18:	20000d19 	.word	0x20000d19

00003a1c <_ZN14USBDeviceClass14sendDescriptorER8USBSetup>:
    3a1c:	b570      	push	{r4, r5, r6, lr}
    3a1e:	78ce      	ldrb	r6, [r1, #3]
    3a20:	b092      	sub	sp, #72	; 0x48
    3a22:	0005      	movs	r5, r0
    3a24:	000c      	movs	r4, r1
    3a26:	2e02      	cmp	r6, #2
    3a28:	d10b      	bne.n	3a42 <_ZN14USBDeviceClass14sendDescriptorER8USBSetup+0x26>
    3a2a:	798b      	ldrb	r3, [r1, #6]
    3a2c:	79c9      	ldrb	r1, [r1, #7]
    3a2e:	482e      	ldr	r0, [pc, #184]	; (3ae8 <_ZN14USBDeviceClass14sendDescriptorER8USBSetup+0xcc>)
    3a30:	0209      	lsls	r1, r1, #8
    3a32:	4319      	orrs	r1, r3
    3a34:	f7ff ffa8 	bl	3988 <_ZN14USBDeviceClass17sendConfigurationEm>
    3a38:	1e41      	subs	r1, r0, #1
    3a3a:	4188      	sbcs	r0, r1
    3a3c:	b2c0      	uxtb	r0, r0
    3a3e:	b012      	add	sp, #72	; 0x48
    3a40:	bd70      	pop	{r4, r5, r6, pc}
    3a42:	f7ff f9a3 	bl	2d8c <_Z12PluggableUSBv>
    3a46:	0021      	movs	r1, r4
    3a48:	f7ff f934 	bl	2cb4 <_ZN13PluggableUSB_13getDescriptorER8USBSetup>
    3a4c:	2800      	cmp	r0, #0
    3a4e:	d003      	beq.n	3a58 <_ZN14USBDeviceClass14sendDescriptorER8USBSetup+0x3c>
    3a50:	17c1      	asrs	r1, r0, #31
    3a52:	1a08      	subs	r0, r1, r0
    3a54:	0fc0      	lsrs	r0, r0, #31
    3a56:	e7f2      	b.n	3a3e <_ZN14USBDeviceClass14sendDescriptorER8USBSetup+0x22>
    3a58:	2e01      	cmp	r6, #1
    3a5a:	d10e      	bne.n	3a7a <_ZN14USBDeviceClass14sendDescriptorER8USBSetup+0x5e>
    3a5c:	79e2      	ldrb	r2, [r4, #7]
    3a5e:	79a3      	ldrb	r3, [r4, #6]
    3a60:	0212      	lsls	r2, r2, #8
    3a62:	431a      	orrs	r2, r3
    3a64:	4921      	ldr	r1, [pc, #132]	; (3aec <_ZN14USBDeviceClass14sendDescriptorER8USBSetup+0xd0>)
    3a66:	2a11      	cmp	r2, #17
    3a68:	dc3c      	bgt.n	3ae4 <_ZN14USBDeviceClass14sendDescriptorER8USBSetup+0xc8>
    3a6a:	b2d2      	uxtb	r2, r2
    3a6c:	2a00      	cmp	r2, #0
    3a6e:	d039      	beq.n	3ae4 <_ZN14USBDeviceClass14sendDescriptorER8USBSetup+0xc8>
    3a70:	0028      	movs	r0, r5
    3a72:	f7ff ff2d 	bl	38d0 <_ZN14USBDeviceClass11sendControlEPKvm>
    3a76:	2001      	movs	r0, #1
    3a78:	e7e1      	b.n	3a3e <_ZN14USBDeviceClass14sendDescriptorER8USBSetup+0x22>
    3a7a:	2e03      	cmp	r6, #3
    3a7c:	d1df      	bne.n	3a3e <_ZN14USBDeviceClass14sendDescriptorER8USBSetup+0x22>
    3a7e:	78a3      	ldrb	r3, [r4, #2]
    3a80:	2b00      	cmp	r3, #0
    3a82:	d028      	beq.n	3ad6 <_ZN14USBDeviceClass14sendDescriptorER8USBSetup+0xba>
    3a84:	2b02      	cmp	r3, #2
    3a86:	d108      	bne.n	3a9a <_ZN14USBDeviceClass14sendDescriptorER8USBSetup+0x7e>
    3a88:	79e2      	ldrb	r2, [r4, #7]
    3a8a:	79a3      	ldrb	r3, [r4, #6]
    3a8c:	0212      	lsls	r2, r2, #8
    3a8e:	4918      	ldr	r1, [pc, #96]	; (3af0 <_ZN14USBDeviceClass14sendDescriptorER8USBSetup+0xd4>)
    3a90:	431a      	orrs	r2, r3
    3a92:	0028      	movs	r0, r5
    3a94:	f7ff ff46 	bl	3924 <_ZN14USBDeviceClass20sendStringDescriptorEPKhm>
    3a98:	e7d1      	b.n	3a3e <_ZN14USBDeviceClass14sendDescriptorER8USBSetup+0x22>
    3a9a:	2b01      	cmp	r3, #1
    3a9c:	d105      	bne.n	3aaa <_ZN14USBDeviceClass14sendDescriptorER8USBSetup+0x8e>
    3a9e:	79e2      	ldrb	r2, [r4, #7]
    3aa0:	79a3      	ldrb	r3, [r4, #6]
    3aa2:	0212      	lsls	r2, r2, #8
    3aa4:	431a      	orrs	r2, r3
    3aa6:	4913      	ldr	r1, [pc, #76]	; (3af4 <_ZN14USBDeviceClass14sendDescriptorER8USBSetup+0xd8>)
    3aa8:	e7f3      	b.n	3a92 <_ZN14USBDeviceClass14sendDescriptorER8USBSetup+0x76>
    3aaa:	2b03      	cmp	r3, #3
    3aac:	d1c7      	bne.n	3a3e <_ZN14USBDeviceClass14sendDescriptorER8USBSetup+0x22>
    3aae:	0001      	movs	r1, r0
    3ab0:	2241      	movs	r2, #65	; 0x41
    3ab2:	a801      	add	r0, sp, #4
    3ab4:	f000 ff83 	bl	49be <memset>
    3ab8:	f7ff f968 	bl	2d8c <_Z12PluggableUSBv>
    3abc:	a901      	add	r1, sp, #4
    3abe:	f7ff f909 	bl	2cd4 <_ZN13PluggableUSB_12getShortNameEPc>
    3ac2:	2800      	cmp	r0, #0
    3ac4:	d005      	beq.n	3ad2 <_ZN14USBDeviceClass14sendDescriptorER8USBSetup+0xb6>
    3ac6:	79e2      	ldrb	r2, [r4, #7]
    3ac8:	79a3      	ldrb	r3, [r4, #6]
    3aca:	0212      	lsls	r2, r2, #8
    3acc:	431a      	orrs	r2, r3
    3ace:	a901      	add	r1, sp, #4
    3ad0:	e7df      	b.n	3a92 <_ZN14USBDeviceClass14sendDescriptorER8USBSetup+0x76>
    3ad2:	7803      	ldrb	r3, [r0, #0]
    3ad4:	deff      	udf	#255	; 0xff
    3ad6:	79e2      	ldrb	r2, [r4, #7]
    3ad8:	79a3      	ldrb	r3, [r4, #6]
    3ada:	0212      	lsls	r2, r2, #8
    3adc:	431a      	orrs	r2, r3
    3ade:	4906      	ldr	r1, [pc, #24]	; (3af8 <_ZN14USBDeviceClass14sendDescriptorER8USBSetup+0xdc>)
    3ae0:	2a03      	cmp	r2, #3
    3ae2:	ddc2      	ble.n	3a6a <_ZN14USBDeviceClass14sendDescriptorER8USBSetup+0x4e>
    3ae4:	780a      	ldrb	r2, [r1, #0]
    3ae6:	e7c3      	b.n	3a70 <_ZN14USBDeviceClass14sendDescriptorER8USBSetup+0x54>
    3ae8:	2000096c 	.word	0x2000096c
    3aec:	00004c52 	.word	0x00004c52
    3af0:	00004c2c 	.word	0x00004c2c
    3af4:	00004c46 	.word	0x00004c46
    3af8:	00004c42 	.word	0x00004c42

00003afc <_ZN14USBDeviceClass7sendZlpEm>:
    3afc:	b2cb      	uxtb	r3, r1
    3afe:	4904      	ldr	r1, [pc, #16]	; (3b10 <_ZN14USBDeviceClass7sendZlpEm+0x14>)
    3b00:	015b      	lsls	r3, r3, #5
    3b02:	18c9      	adds	r1, r1, r3
    3b04:	698b      	ldr	r3, [r1, #24]
    3b06:	0b9b      	lsrs	r3, r3, #14
    3b08:	039b      	lsls	r3, r3, #14
    3b0a:	618b      	str	r3, [r1, #24]
    3b0c:	4770      	bx	lr
    3b0e:	46c0      	nop			; (mov r8, r8)
    3b10:	20000e24 	.word	0x20000e24

00003b14 <_ZN14USBDeviceClass19handleStandardSetupER8USBSetup>:
    3b14:	b537      	push	{r0, r1, r2, r4, r5, lr}
    3b16:	0005      	movs	r5, r0
    3b18:	7848      	ldrb	r0, [r1, #1]
    3b1a:	000c      	movs	r4, r1
    3b1c:	280b      	cmp	r0, #11
    3b1e:	d811      	bhi.n	3b44 <_ZN14USBDeviceClass19handleStandardSetupER8USBSetup+0x30>
    3b20:	f000 fe76 	bl	4810 <__gnu_thumb1_case_uqi>
    3b24:	2e101d06 	.word	0x2e101d06
    3b28:	64484310 	.word	0x64484310
    3b2c:	605d4f4c 	.word	0x605d4f4c
    3b30:	7809      	ldrb	r1, [r1, #0]
    3b32:	aa01      	add	r2, sp, #4
    3b34:	2900      	cmp	r1, #0
    3b36:	d107      	bne.n	3b48 <_ZN14USBDeviceClass19handleStandardSetupER8USBSetup+0x34>
    3b38:	2302      	movs	r3, #2
    3b3a:	7011      	strb	r1, [r2, #0]
    3b3c:	7051      	strb	r1, [r2, #1]
    3b3e:	0028      	movs	r0, r5
    3b40:	f7ff fea2 	bl	3888 <_ZN14USBDeviceClass7armSendEmPKvm>
    3b44:	2001      	movs	r0, #1
    3b46:	bd3e      	pop	{r1, r2, r3, r4, r5, pc}
    3b48:	2300      	movs	r3, #0
    3b4a:	7013      	strb	r3, [r2, #0]
    3b4c:	7053      	strb	r3, [r2, #1]
    3b4e:	4b28      	ldr	r3, [pc, #160]	; (3bf0 <_ZN14USBDeviceClass19handleStandardSetupER8USBSetup+0xdc>)
    3b50:	781b      	ldrb	r3, [r3, #0]
    3b52:	2b01      	cmp	r3, #1
    3b54:	d100      	bne.n	3b58 <_ZN14USBDeviceClass19handleStandardSetupER8USBSetup+0x44>
    3b56:	7013      	strb	r3, [r2, #0]
    3b58:	2302      	movs	r3, #2
    3b5a:	2100      	movs	r1, #0
    3b5c:	e7ef      	b.n	3b3e <_ZN14USBDeviceClass19handleStandardSetupER8USBSetup+0x2a>
    3b5e:	788a      	ldrb	r2, [r1, #2]
    3b60:	2300      	movs	r3, #0
    3b62:	2a01      	cmp	r2, #1
    3b64:	d104      	bne.n	3b70 <_ZN14USBDeviceClass19handleStandardSetupER8USBSetup+0x5c>
    3b66:	aa01      	add	r2, sp, #4
    3b68:	7013      	strb	r3, [r2, #0]
    3b6a:	7053      	strb	r3, [r2, #1]
    3b6c:	4b21      	ldr	r3, [pc, #132]	; (3bf4 <_ZN14USBDeviceClass19handleStandardSetupER8USBSetup+0xe0>)
    3b6e:	e7ef      	b.n	3b50 <_ZN14USBDeviceClass19handleStandardSetupER8USBSetup+0x3c>
    3b70:	4a1f      	ldr	r2, [pc, #124]	; (3bf0 <_ZN14USBDeviceClass19handleStandardSetupER8USBSetup+0xdc>)
    3b72:	7013      	strb	r3, [r2, #0]
    3b74:	4a20      	ldr	r2, [pc, #128]	; (3bf8 <_ZN14USBDeviceClass19handleStandardSetupER8USBSetup+0xe4>)
    3b76:	6993      	ldr	r3, [r2, #24]
    3b78:	0b9b      	lsrs	r3, r3, #14
    3b7a:	039b      	lsls	r3, r3, #14
    3b7c:	6193      	str	r3, [r2, #24]
    3b7e:	e7e1      	b.n	3b44 <_ZN14USBDeviceClass19handleStandardSetupER8USBSetup+0x30>
    3b80:	788c      	ldrb	r4, [r1, #2]
    3b82:	2c01      	cmp	r4, #1
    3b84:	d106      	bne.n	3b94 <_ZN14USBDeviceClass19handleStandardSetupER8USBSetup+0x80>
    3b86:	2100      	movs	r1, #0
    3b88:	4b1a      	ldr	r3, [pc, #104]	; (3bf4 <_ZN14USBDeviceClass19handleStandardSetupER8USBSetup+0xe0>)
    3b8a:	aa01      	add	r2, sp, #4
    3b8c:	701c      	strb	r4, [r3, #0]
    3b8e:	7011      	strb	r1, [r2, #0]
    3b90:	0023      	movs	r3, r4
    3b92:	e7d4      	b.n	3b3e <_ZN14USBDeviceClass19handleStandardSetupER8USBSetup+0x2a>
    3b94:	2001      	movs	r0, #1
    3b96:	2c00      	cmp	r4, #0
    3b98:	d1d5      	bne.n	3b46 <_ZN14USBDeviceClass19handleStandardSetupER8USBSetup+0x32>
    3b9a:	4b15      	ldr	r3, [pc, #84]	; (3bf0 <_ZN14USBDeviceClass19handleStandardSetupER8USBSetup+0xdc>)
    3b9c:	4a16      	ldr	r2, [pc, #88]	; (3bf8 <_ZN14USBDeviceClass19handleStandardSetupER8USBSetup+0xe4>)
    3b9e:	7018      	strb	r0, [r3, #0]
    3ba0:	6993      	ldr	r3, [r2, #24]
    3ba2:	0b9b      	lsrs	r3, r3, #14
    3ba4:	039b      	lsls	r3, r3, #14
    3ba6:	6193      	str	r3, [r2, #24]
    3ba8:	e7cd      	b.n	3b46 <_ZN14USBDeviceClass19handleStandardSetupER8USBSetup+0x32>
    3baa:	7889      	ldrb	r1, [r1, #2]
    3bac:	0028      	movs	r0, r5
    3bae:	f7ff fc21 	bl	33f4 <_ZN14USBDeviceClass10setAddressEm>
    3bb2:	e7c7      	b.n	3b44 <_ZN14USBDeviceClass19handleStandardSetupER8USBSetup+0x30>
    3bb4:	0028      	movs	r0, r5
    3bb6:	f7ff ff31 	bl	3a1c <_ZN14USBDeviceClass14sendDescriptorER8USBSetup>
    3bba:	e7c4      	b.n	3b46 <_ZN14USBDeviceClass19handleStandardSetupER8USBSetup+0x32>
    3bbc:	2301      	movs	r3, #1
    3bbe:	4a0f      	ldr	r2, [pc, #60]	; (3bfc <_ZN14USBDeviceClass19handleStandardSetupER8USBSetup+0xe8>)
    3bc0:	e7cb      	b.n	3b5a <_ZN14USBDeviceClass19handleStandardSetupER8USBSetup+0x46>
    3bc2:	780b      	ldrb	r3, [r1, #0]
    3bc4:	2000      	movs	r0, #0
    3bc6:	06db      	lsls	r3, r3, #27
    3bc8:	d1bd      	bne.n	3b46 <_ZN14USBDeviceClass19handleStandardSetupER8USBSetup+0x32>
    3bca:	0028      	movs	r0, r5
    3bcc:	f7ff fcca 	bl	3564 <_ZN14USBDeviceClass13initEndpointsEv>
    3bd0:	78a2      	ldrb	r2, [r4, #2]
    3bd2:	4b0a      	ldr	r3, [pc, #40]	; (3bfc <_ZN14USBDeviceClass19handleStandardSetupER8USBSetup+0xe8>)
    3bd4:	480a      	ldr	r0, [pc, #40]	; (3c00 <_ZN14USBDeviceClass19handleStandardSetupER8USBSetup+0xec>)
    3bd6:	601a      	str	r2, [r3, #0]
    3bd8:	f7ff f834 	bl	2c44 <_ZN7Serial_15enableInterruptEv>
    3bdc:	e7ca      	b.n	3b74 <_ZN14USBDeviceClass19handleStandardSetupER8USBSetup+0x60>
    3bde:	2301      	movs	r3, #1
    3be0:	4a08      	ldr	r2, [pc, #32]	; (3c04 <_ZN14USBDeviceClass19handleStandardSetupER8USBSetup+0xf0>)
    3be2:	e7ba      	b.n	3b5a <_ZN14USBDeviceClass19handleStandardSetupER8USBSetup+0x46>
    3be4:	788a      	ldrb	r2, [r1, #2]
    3be6:	4b07      	ldr	r3, [pc, #28]	; (3c04 <_ZN14USBDeviceClass19handleStandardSetupER8USBSetup+0xf0>)
    3be8:	601a      	str	r2, [r3, #0]
    3bea:	e7c3      	b.n	3b74 <_ZN14USBDeviceClass19handleStandardSetupER8USBSetup+0x60>
    3bec:	2000      	movs	r0, #0
    3bee:	e7aa      	b.n	3b46 <_ZN14USBDeviceClass19handleStandardSetupER8USBSetup+0x32>
    3bf0:	2000098c 	.word	0x2000098c
    3bf4:	20000994 	.word	0x20000994
    3bf8:	20000e24 	.word	0x20000e24
    3bfc:	20000e1c 	.word	0x20000e1c
    3c00:	20000904 	.word	0x20000904
    3c04:	20000e20 	.word	0x20000e20

00003c08 <_ZN14USBDeviceClass10ISRHandlerEv>:
    3c08:	4b3b      	ldr	r3, [pc, #236]	; (3cf8 <_ZN14USBDeviceClass10ISRHandlerEv+0xf0>)
    3c0a:	b5f7      	push	{r0, r1, r2, r4, r5, r6, r7, lr}
    3c0c:	781e      	ldrb	r6, [r3, #0]
    3c0e:	0005      	movs	r5, r0
    3c10:	2e00      	cmp	r6, #0
    3c12:	d161      	bne.n	3cd8 <_ZN14USBDeviceClass10ISRHandlerEv+0xd0>
    3c14:	4c39      	ldr	r4, [pc, #228]	; (3cfc <_ZN14USBDeviceClass10ISRHandlerEv+0xf4>)
    3c16:	6823      	ldr	r3, [r4, #0]
    3c18:	8b9a      	ldrh	r2, [r3, #28]
    3c1a:	0712      	lsls	r2, r2, #28
    3c1c:	d50d      	bpl.n	3c3a <_ZN14USBDeviceClass10ISRHandlerEv+0x32>
    3c1e:	2208      	movs	r2, #8
    3c20:	0031      	movs	r1, r6
    3c22:	839a      	strh	r2, [r3, #28]
    3c24:	0030      	movs	r0, r6
    3c26:	f7ff f8c9 	bl	2dbc <_ZN14USBDeviceClass6initEPEmm.part.7>
    3c2a:	2210      	movs	r2, #16
    3c2c:	6823      	ldr	r3, [r4, #0]
    3c2e:	33ff      	adds	r3, #255	; 0xff
    3c30:	7a99      	ldrb	r1, [r3, #10]
    3c32:	430a      	orrs	r2, r1
    3c34:	729a      	strb	r2, [r3, #10]
    3c36:	4b32      	ldr	r3, [pc, #200]	; (3d00 <_ZN14USBDeviceClass10ISRHandlerEv+0xf8>)
    3c38:	601e      	str	r6, [r3, #0]
    3c3a:	6823      	ldr	r3, [r4, #0]
    3c3c:	8b9a      	ldrh	r2, [r3, #28]
    3c3e:	0752      	lsls	r2, r2, #29
    3c40:	d501      	bpl.n	3c46 <_ZN14USBDeviceClass10ISRHandlerEv+0x3e>
    3c42:	2204      	movs	r2, #4
    3c44:	839a      	strh	r2, [r3, #28]
    3c46:	33ff      	adds	r3, #255	; 0xff
    3c48:	7a1a      	ldrb	r2, [r3, #8]
    3c4a:	0692      	lsls	r2, r2, #26
    3c4c:	d503      	bpl.n	3c56 <_ZN14USBDeviceClass10ISRHandlerEv+0x4e>
    3c4e:	2220      	movs	r2, #32
    3c50:	7a59      	ldrb	r1, [r3, #9]
    3c52:	430a      	orrs	r2, r1
    3c54:	725a      	strb	r2, [r3, #9]
    3c56:	7a1a      	ldrb	r2, [r3, #8]
    3c58:	06d2      	lsls	r2, r2, #27
    3c5a:	d525      	bpl.n	3ca8 <_ZN14USBDeviceClass10ISRHandlerEv+0xa0>
    3c5c:	4668      	mov	r0, sp
    3c5e:	4a29      	ldr	r2, [pc, #164]	; (3d04 <_ZN14USBDeviceClass10ISRHandlerEv+0xfc>)
    3c60:	4669      	mov	r1, sp
    3c62:	cac0      	ldmia	r2!, {r6, r7}
    3c64:	c0c0      	stmia	r0!, {r6, r7}
    3c66:	68a2      	ldr	r2, [r4, #8]
    3c68:	0b92      	lsrs	r2, r2, #14
    3c6a:	0392      	lsls	r2, r2, #14
    3c6c:	60a2      	str	r2, [r4, #8]
    3c6e:	2240      	movs	r2, #64	; 0x40
    3c70:	7958      	ldrb	r0, [r3, #5]
    3c72:	4302      	orrs	r2, r0
    3c74:	715a      	strb	r2, [r3, #5]
    3c76:	2360      	movs	r3, #96	; 0x60
    3c78:	780a      	ldrb	r2, [r1, #0]
    3c7a:	0028      	movs	r0, r5
    3c7c:	421a      	tst	r2, r3
    3c7e:	d12c      	bne.n	3cda <_ZN14USBDeviceClass10ISRHandlerEv+0xd2>
    3c80:	f7ff ff48 	bl	3b14 <_ZN14USBDeviceClass19handleStandardSetupER8USBSetup>
    3c84:	2800      	cmp	r0, #0
    3c86:	d02b      	beq.n	3ce0 <_ZN14USBDeviceClass10ISRHandlerEv+0xd8>
    3c88:	2280      	movs	r2, #128	; 0x80
    3c8a:	6823      	ldr	r3, [r4, #0]
    3c8c:	4252      	negs	r2, r2
    3c8e:	33ff      	adds	r3, #255	; 0xff
    3c90:	7999      	ldrb	r1, [r3, #6]
    3c92:	430a      	orrs	r2, r1
    3c94:	719a      	strb	r2, [r3, #6]
    3c96:	6823      	ldr	r3, [r4, #0]
    3c98:	33ff      	adds	r3, #255	; 0xff
    3c9a:	7a1a      	ldrb	r2, [r3, #8]
    3c9c:	0652      	lsls	r2, r2, #25
    3c9e:	d503      	bpl.n	3ca8 <_ZN14USBDeviceClass10ISRHandlerEv+0xa0>
    3ca0:	2240      	movs	r2, #64	; 0x40
    3ca2:	7a59      	ldrb	r1, [r3, #9]
    3ca4:	430a      	orrs	r2, r1
    3ca6:	725a      	strb	r2, [r3, #9]
    3ca8:	267f      	movs	r6, #127	; 0x7f
    3caa:	2501      	movs	r5, #1
    3cac:	6823      	ldr	r3, [r4, #0]
    3cae:	33ff      	adds	r3, #255	; 0xff
    3cb0:	721e      	strb	r6, [r3, #8]
    3cb2:	002f      	movs	r7, r5
    3cb4:	6823      	ldr	r3, [r4, #0]
    3cb6:	3708      	adds	r7, #8
    3cb8:	017f      	lsls	r7, r7, #5
    3cba:	19db      	adds	r3, r3, r7
    3cbc:	79db      	ldrb	r3, [r3, #7]
    3cbe:	2b00      	cmp	r3, #0
    3cc0:	d007      	beq.n	3cd2 <_ZN14USBDeviceClass10ISRHandlerEv+0xca>
    3cc2:	4b11      	ldr	r3, [pc, #68]	; (3d08 <_ZN14USBDeviceClass10ISRHandlerEv+0x100>)
    3cc4:	00aa      	lsls	r2, r5, #2
    3cc6:	58d0      	ldr	r0, [r2, r3]
    3cc8:	2800      	cmp	r0, #0
    3cca:	d00c      	beq.n	3ce6 <_ZN14USBDeviceClass10ISRHandlerEv+0xde>
    3ccc:	6803      	ldr	r3, [r0, #0]
    3cce:	681b      	ldr	r3, [r3, #0]
    3cd0:	4798      	blx	r3
    3cd2:	3501      	adds	r5, #1
    3cd4:	2d08      	cmp	r5, #8
    3cd6:	d1ec      	bne.n	3cb2 <_ZN14USBDeviceClass10ISRHandlerEv+0xaa>
    3cd8:	bdf7      	pop	{r0, r1, r2, r4, r5, r6, r7, pc}
    3cda:	f7ff fbaf 	bl	343c <_ZN14USBDeviceClass25handleClassInterfaceSetupER8USBSetup>
    3cde:	e7d1      	b.n	3c84 <_ZN14USBDeviceClass10ISRHandlerEv+0x7c>
    3ce0:	2220      	movs	r2, #32
    3ce2:	4b0a      	ldr	r3, [pc, #40]	; (3d0c <_ZN14USBDeviceClass10ISRHandlerEv+0x104>)
    3ce4:	e7d6      	b.n	3c94 <_ZN14USBDeviceClass10ISRHandlerEv+0x8c>
    3ce6:	f7ff f851 	bl	2d8c <_Z12PluggableUSBv>
    3cea:	0029      	movs	r1, r5
    3cec:	f7ff f815 	bl	2d1a <_ZN13PluggableUSB_14handleEndpointEi>
    3cf0:	6823      	ldr	r3, [r4, #0]
    3cf2:	19df      	adds	r7, r3, r7
    3cf4:	71fe      	strb	r6, [r7, #7]
    3cf6:	e7ec      	b.n	3cd2 <_ZN14USBDeviceClass10ISRHandlerEv+0xca>
    3cf8:	20000e19 	.word	0x20000e19
    3cfc:	20000e24 	.word	0x20000e24
    3d00:	20000e1c 	.word	0x20000e1c
    3d04:	20000b58 	.word	0x20000b58
    3d08:	20000970 	.word	0x20000970
    3d0c:	410050ff 	.word	0x410050ff

00003d10 <UDD_Handler>:
    3d10:	b510      	push	{r4, lr}
    3d12:	4802      	ldr	r0, [pc, #8]	; (3d1c <UDD_Handler+0xc>)
    3d14:	f7ff ff78 	bl	3c08 <_ZN14USBDeviceClass10ISRHandlerEv>
    3d18:	bd10      	pop	{r4, pc}
    3d1a:	46c0      	nop			; (mov r8, r8)
    3d1c:	2000096c 	.word	0x2000096c

00003d20 <_GLOBAL__sub_I_usbd>:
    3d20:	4a01      	ldr	r2, [pc, #4]	; (3d28 <_GLOBAL__sub_I_usbd+0x8>)
    3d22:	4b02      	ldr	r3, [pc, #8]	; (3d2c <_GLOBAL__sub_I_usbd+0xc>)
    3d24:	601a      	str	r2, [r3, #0]
    3d26:	4770      	bx	lr
    3d28:	41005000 	.word	0x41005000
    3d2c:	20000e24 	.word	0x20000e24

00003d30 <init>:
    3d30:	21fa      	movs	r1, #250	; 0xfa
    3d32:	4b31      	ldr	r3, [pc, #196]	; (3df8 <init+0xc8>)
    3d34:	b510      	push	{r4, lr}
    3d36:	6818      	ldr	r0, [r3, #0]
    3d38:	0089      	lsls	r1, r1, #2
    3d3a:	f000 fd73 	bl	4824 <__udivsi3>
           function <b>SysTick_Config</b> is not included. In this case, the file <b><i>device</i>.h</b>
           must contain a vendor-specific implementation of this function.
 */
__STATIC_INLINE uint32_t SysTick_Config(uint32_t ticks)
{
  if ((ticks - 1UL) > SysTick_LOAD_RELOAD_Msk)
    3d3e:	4b2f      	ldr	r3, [pc, #188]	; (3dfc <init+0xcc>)
    3d40:	3801      	subs	r0, #1
    3d42:	4298      	cmp	r0, r3
    3d44:	d856      	bhi.n	3df4 <init+0xc4>
  {
    return (1UL);                                                   /* Reload value impossible */
  }

  SysTick->LOAD  = (uint32_t)(ticks - 1UL);                         /* set reload register */
    3d46:	492e      	ldr	r1, [pc, #184]	; (3e00 <init+0xd0>)
    SCB->SHP[_SHP_IDX(IRQn)] = ((uint32_t)(SCB->SHP[_SHP_IDX(IRQn)] & ~(0xFFUL << _BIT_SHIFT(IRQn))) |
    3d48:	4a2e      	ldr	r2, [pc, #184]	; (3e04 <init+0xd4>)
  SysTick->LOAD  = (uint32_t)(ticks - 1UL);                         /* set reload register */
    3d4a:	6048      	str	r0, [r1, #4]
    SCB->SHP[_SHP_IDX(IRQn)] = ((uint32_t)(SCB->SHP[_SHP_IDX(IRQn)] & ~(0xFFUL << _BIT_SHIFT(IRQn))) |
    3d4c:	20c0      	movs	r0, #192	; 0xc0
    3d4e:	6a13      	ldr	r3, [r2, #32]
    3d50:	0600      	lsls	r0, r0, #24
    3d52:	021b      	lsls	r3, r3, #8
    3d54:	0a1b      	lsrs	r3, r3, #8
    3d56:	4303      	orrs	r3, r0
    3d58:	6213      	str	r3, [r2, #32]
  NVIC_SetPriority (SysTick_IRQn, (1UL << __NVIC_PRIO_BITS) - 1UL); /* set Priority for Systick Interrupt */
  SysTick->VAL   = 0UL;                                             /* Load the SysTick Counter Value */
    3d5a:	2400      	movs	r4, #0
  SysTick->CTRL  = SysTick_CTRL_CLKSOURCE_Msk |
    3d5c:	2307      	movs	r3, #7
  SysTick->VAL   = 0UL;                                             /* Load the SysTick Counter Value */
    3d5e:	608c      	str	r4, [r1, #8]
  SysTick->CTRL  = SysTick_CTRL_CLKSOURCE_Msk |
    3d60:	600b      	str	r3, [r1, #0]
    SCB->SHP[_SHP_IDX(IRQn)] = ((uint32_t)(SCB->SHP[_SHP_IDX(IRQn)] & ~(0xFFUL << _BIT_SHIFT(IRQn))) |
    3d62:	2180      	movs	r1, #128	; 0x80
    3d64:	6a13      	ldr	r3, [r2, #32]
    3d66:	0609      	lsls	r1, r1, #24
    3d68:	021b      	lsls	r3, r3, #8
    3d6a:	0a1b      	lsrs	r3, r3, #8
    3d6c:	430b      	orrs	r3, r1
    3d6e:	6213      	str	r3, [r2, #32]
    3d70:	22fc      	movs	r2, #252	; 0xfc
    3d72:	4b25      	ldr	r3, [pc, #148]	; (3e08 <init+0xd8>)
    3d74:	6a19      	ldr	r1, [r3, #32]
    3d76:	430a      	orrs	r2, r1
    3d78:	621a      	str	r2, [r3, #32]
    3d7a:	22fc      	movs	r2, #252	; 0xfc
    3d7c:	6a19      	ldr	r1, [r3, #32]
    3d7e:	0192      	lsls	r2, r2, #6
    3d80:	430a      	orrs	r2, r1
    3d82:	621a      	str	r2, [r3, #32]
    3d84:	22a0      	movs	r2, #160	; 0xa0
    3d86:	6a19      	ldr	r1, [r3, #32]
    3d88:	02d2      	lsls	r2, r2, #11
    3d8a:	430a      	orrs	r2, r1
    3d8c:	621a      	str	r2, [r3, #32]
    3d8e:	0020      	movs	r0, r4
    3d90:	2100      	movs	r1, #0
    3d92:	3401      	adds	r4, #1
    3d94:	f000 f876 	bl	3e84 <pinMode>
    3d98:	2c0f      	cmp	r4, #15
    3d9a:	d1f8      	bne.n	3d8e <init+0x5e>
    3d9c:	4b1b      	ldr	r3, [pc, #108]	; (3e0c <init+0xdc>)
    3d9e:	001c      	movs	r4, r3
    3da0:	785a      	ldrb	r2, [r3, #1]
    3da2:	b252      	sxtb	r2, r2
    3da4:	2a00      	cmp	r2, #0
    3da6:	dbfb      	blt.n	3da0 <init+0x70>
    3da8:	4a19      	ldr	r2, [pc, #100]	; (3e10 <init+0xe0>)
    3daa:	805a      	strh	r2, [r3, #2]
    3dac:	4b19      	ldr	r3, [pc, #100]	; (3e14 <init+0xe4>)
    3dae:	001a      	movs	r2, r3
    3db0:	7e59      	ldrb	r1, [r3, #25]
    3db2:	09c9      	lsrs	r1, r1, #7
    3db4:	2901      	cmp	r1, #1
    3db6:	d0fb      	beq.n	3db0 <init+0x80>
    3db8:	21e4      	movs	r1, #228	; 0xe4
    3dba:	00c9      	lsls	r1, r1, #3
    3dbc:	8099      	strh	r1, [r3, #4]
    3dbe:	213f      	movs	r1, #63	; 0x3f
    3dc0:	70d9      	strb	r1, [r3, #3]
    3dc2:	7e53      	ldrb	r3, [r2, #25]
    3dc4:	09db      	lsrs	r3, r3, #7
    3dc6:	2b01      	cmp	r3, #1
    3dc8:	d0fb      	beq.n	3dc2 <init+0x92>
    3dca:	23c0      	movs	r3, #192	; 0xc0
    3dcc:	2000      	movs	r0, #0
    3dce:	015b      	lsls	r3, r3, #5
    3dd0:	6113      	str	r3, [r2, #16]
    3dd2:	7090      	strb	r0, [r2, #2]
    3dd4:	f000 f824 	bl	3e20 <analogReference>
    3dd8:	7863      	ldrb	r3, [r4, #1]
    3dda:	b25b      	sxtb	r3, r3
    3ddc:	2b00      	cmp	r3, #0
    3dde:	dbfb      	blt.n	3dd8 <init+0xa8>
    3de0:	4b0d      	ldr	r3, [pc, #52]	; (3e18 <init+0xe8>)
    3de2:	4a0e      	ldr	r2, [pc, #56]	; (3e1c <init+0xec>)
    3de4:	8063      	strh	r3, [r4, #2]
    3de6:	79d3      	ldrb	r3, [r2, #7]
    3de8:	09db      	lsrs	r3, r3, #7
    3dea:	2b01      	cmp	r3, #1
    3dec:	d0fb      	beq.n	3de6 <init+0xb6>
    3dee:	2341      	movs	r3, #65	; 0x41
    3df0:	7053      	strb	r3, [r2, #1]
    3df2:	bd10      	pop	{r4, pc}
    3df4:	e7fe      	b.n	3df4 <init+0xc4>
    3df6:	46c0      	nop			; (mov r8, r8)
    3df8:	20000014 	.word	0x20000014
    3dfc:	00ffffff 	.word	0x00ffffff
    3e00:	e000e010 	.word	0xe000e010
    3e04:	e000ed00 	.word	0xe000ed00
    3e08:	40000400 	.word	0x40000400
    3e0c:	40000c00 	.word	0x40000c00
    3e10:	0000401e 	.word	0x0000401e
    3e14:	42004000 	.word	0x42004000
    3e18:	00004021 	.word	0x00004021
    3e1c:	42004800 	.word	0x42004800

00003e20 <analogReference>:
    3e20:	4a16      	ldr	r2, [pc, #88]	; (3e7c <analogReference+0x5c>)
    3e22:	b500      	push	{lr}
    3e24:	0013      	movs	r3, r2
    3e26:	7e51      	ldrb	r1, [r2, #25]
    3e28:	09c9      	lsrs	r1, r1, #7
    3e2a:	2901      	cmp	r1, #1
    3e2c:	d0fb      	beq.n	3e26 <analogReference+0x6>
    3e2e:	3801      	subs	r0, #1
    3e30:	2804      	cmp	r0, #4
    3e32:	d816      	bhi.n	3e62 <analogReference+0x42>
    3e34:	6919      	ldr	r1, [r3, #16]
    3e36:	4a12      	ldr	r2, [pc, #72]	; (3e80 <analogReference+0x60>)
    3e38:	400a      	ands	r2, r1
    3e3a:	210f      	movs	r1, #15
    3e3c:	611a      	str	r2, [r3, #16]
    3e3e:	785a      	ldrb	r2, [r3, #1]
    3e40:	438a      	bics	r2, r1
    3e42:	f000 fce5 	bl	4810 <__gnu_thumb1_case_uqi>
    3e46:	0803      	.short	0x0803
    3e48:	0b06      	.short	0x0b06
    3e4a:	03          	.byte	0x03
    3e4b:	00          	.byte	0x00
    3e4c:	0011      	movs	r1, r2
    3e4e:	2201      	movs	r2, #1
    3e50:	430a      	orrs	r2, r1
    3e52:	705a      	strb	r2, [r3, #1]
    3e54:	bd00      	pop	{pc}
    3e56:	0011      	movs	r1, r2
    3e58:	2203      	movs	r2, #3
    3e5a:	e7f9      	b.n	3e50 <analogReference+0x30>
    3e5c:	0011      	movs	r1, r2
    3e5e:	2202      	movs	r2, #2
    3e60:	e7f6      	b.n	3e50 <analogReference+0x30>
    3e62:	23f0      	movs	r3, #240	; 0xf0
    3e64:	6911      	ldr	r1, [r2, #16]
    3e66:	051b      	lsls	r3, r3, #20
    3e68:	430b      	orrs	r3, r1
    3e6a:	210f      	movs	r1, #15
    3e6c:	6113      	str	r3, [r2, #16]
    3e6e:	7853      	ldrb	r3, [r2, #1]
    3e70:	438b      	bics	r3, r1
    3e72:	0019      	movs	r1, r3
    3e74:	2302      	movs	r3, #2
    3e76:	430b      	orrs	r3, r1
    3e78:	7053      	strb	r3, [r2, #1]
    3e7a:	e7eb      	b.n	3e54 <analogReference+0x34>
    3e7c:	42004000 	.word	0x42004000
    3e80:	f0ffffff 	.word	0xf0ffffff

00003e84 <pinMode>:
    3e84:	2318      	movs	r3, #24
    3e86:	b530      	push	{r4, r5, lr}
    3e88:	001d      	movs	r5, r3
    3e8a:	0004      	movs	r4, r0
    3e8c:	4345      	muls	r5, r0
    3e8e:	2008      	movs	r0, #8
    3e90:	4a20      	ldr	r2, [pc, #128]	; (3f14 <pinMode+0x90>)
    3e92:	1955      	adds	r5, r2, r5
    3e94:	5628      	ldrsb	r0, [r5, r0]
    3e96:	3001      	adds	r0, #1
    3e98:	d014      	beq.n	3ec4 <pinMode+0x40>
    3e9a:	2903      	cmp	r1, #3
    3e9c:	d812      	bhi.n	3ec4 <pinMode+0x40>
    3e9e:	0008      	movs	r0, r1
    3ea0:	4363      	muls	r3, r4
    3ea2:	56d1      	ldrsb	r1, [r2, r3]
    3ea4:	18d3      	adds	r3, r2, r3
    3ea6:	f000 fcb3 	bl	4810 <__gnu_thumb1_case_uqi>
    3eaa:	2802      	.short	0x2802
    3eac:	1b0e      	.short	0x1b0e
    3eae:	6858      	ldr	r0, [r3, #4]
    3eb0:	01cb      	lsls	r3, r1, #7
    3eb2:	2102      	movs	r1, #2
    3eb4:	4a18      	ldr	r2, [pc, #96]	; (3f18 <pinMode+0x94>)
    3eb6:	189b      	adds	r3, r3, r2
    3eb8:	181a      	adds	r2, r3, r0
    3eba:	3240      	adds	r2, #64	; 0x40
    3ebc:	7011      	strb	r1, [r2, #0]
    3ebe:	2201      	movs	r2, #1
    3ec0:	4082      	lsls	r2, r0
    3ec2:	605a      	str	r2, [r3, #4]
    3ec4:	bd30      	pop	{r4, r5, pc}
    3ec6:	6858      	ldr	r0, [r3, #4]
    3ec8:	01cb      	lsls	r3, r1, #7
    3eca:	2106      	movs	r1, #6
    3ecc:	4a12      	ldr	r2, [pc, #72]	; (3f18 <pinMode+0x94>)
    3ece:	189b      	adds	r3, r3, r2
    3ed0:	181a      	adds	r2, r3, r0
    3ed2:	3240      	adds	r2, #64	; 0x40
    3ed4:	7011      	strb	r1, [r2, #0]
    3ed6:	2201      	movs	r2, #1
    3ed8:	4082      	lsls	r2, r0
    3eda:	605a      	str	r2, [r3, #4]
    3edc:	619a      	str	r2, [r3, #24]
    3ede:	e7f1      	b.n	3ec4 <pinMode+0x40>
    3ee0:	6858      	ldr	r0, [r3, #4]
    3ee2:	01cb      	lsls	r3, r1, #7
    3ee4:	2106      	movs	r1, #6
    3ee6:	4a0c      	ldr	r2, [pc, #48]	; (3f18 <pinMode+0x94>)
    3ee8:	189b      	adds	r3, r3, r2
    3eea:	181a      	adds	r2, r3, r0
    3eec:	3240      	adds	r2, #64	; 0x40
    3eee:	7011      	strb	r1, [r2, #0]
    3ef0:	2201      	movs	r2, #1
    3ef2:	4082      	lsls	r2, r0
    3ef4:	605a      	str	r2, [r3, #4]
    3ef6:	615a      	str	r2, [r3, #20]
    3ef8:	e7e4      	b.n	3ec4 <pinMode+0x40>
    3efa:	6858      	ldr	r0, [r3, #4]
    3efc:	01cb      	lsls	r3, r1, #7
    3efe:	2102      	movs	r1, #2
    3f00:	4a05      	ldr	r2, [pc, #20]	; (3f18 <pinMode+0x94>)
    3f02:	189b      	adds	r3, r3, r2
    3f04:	181a      	adds	r2, r3, r0
    3f06:	3240      	adds	r2, #64	; 0x40
    3f08:	7011      	strb	r1, [r2, #0]
    3f0a:	2201      	movs	r2, #1
    3f0c:	4082      	lsls	r2, r0
    3f0e:	609a      	str	r2, [r3, #8]
    3f10:	e7d8      	b.n	3ec4 <pinMode+0x40>
    3f12:	46c0      	nop			; (mov r8, r8)
    3f14:	00004c64 	.word	0x00004c64
    3f18:	41004400 	.word	0x41004400

00003f1c <digitalWrite>:
    3f1c:	2318      	movs	r3, #24
    3f1e:	b5f0      	push	{r4, r5, r6, r7, lr}
    3f20:	2408      	movs	r4, #8
    3f22:	4358      	muls	r0, r3
    3f24:	4a11      	ldr	r2, [pc, #68]	; (3f6c <digitalWrite+0x50>)
    3f26:	1813      	adds	r3, r2, r0
    3f28:	571c      	ldrsb	r4, [r3, r4]
    3f2a:	3401      	adds	r4, #1
    3f2c:	d01b      	beq.n	3f66 <digitalWrite+0x4a>
    3f2e:	2601      	movs	r6, #1
    3f30:	0035      	movs	r5, r6
    3f32:	685f      	ldr	r7, [r3, #4]
    3f34:	5683      	ldrsb	r3, [r0, r2]
    3f36:	40bd      	lsls	r5, r7
    3f38:	4a0d      	ldr	r2, [pc, #52]	; (3f70 <digitalWrite+0x54>)
    3f3a:	01db      	lsls	r3, r3, #7
    3f3c:	189a      	adds	r2, r3, r2
    3f3e:	6890      	ldr	r0, [r2, #8]
    3f40:	4228      	tst	r0, r5
    3f42:	d10b      	bne.n	3f5c <digitalWrite+0x40>
    3f44:	000c      	movs	r4, r1
    3f46:	1e60      	subs	r0, r4, #1
    3f48:	4184      	sbcs	r4, r0
    3f4a:	19d2      	adds	r2, r2, r7
    3f4c:	3240      	adds	r2, #64	; 0x40
    3f4e:	7810      	ldrb	r0, [r2, #0]
    3f50:	4034      	ands	r4, r6
    3f52:	3603      	adds	r6, #3
    3f54:	00a4      	lsls	r4, r4, #2
    3f56:	43b0      	bics	r0, r6
    3f58:	4320      	orrs	r0, r4
    3f5a:	7010      	strb	r0, [r2, #0]
    3f5c:	4a04      	ldr	r2, [pc, #16]	; (3f70 <digitalWrite+0x54>)
    3f5e:	189b      	adds	r3, r3, r2
    3f60:	2900      	cmp	r1, #0
    3f62:	d101      	bne.n	3f68 <digitalWrite+0x4c>
    3f64:	615d      	str	r5, [r3, #20]
    3f66:	bdf0      	pop	{r4, r5, r6, r7, pc}
    3f68:	619d      	str	r5, [r3, #24]
    3f6a:	e7fc      	b.n	3f66 <digitalWrite+0x4a>
    3f6c:	00004c64 	.word	0x00004c64
    3f70:	41004400 	.word	0x41004400

00003f74 <pinPeripheral>:
    3f74:	b5f8      	push	{r3, r4, r5, r6, r7, lr}
    3f76:	0003      	movs	r3, r0
    3f78:	2018      	movs	r0, #24
    3f7a:	4358      	muls	r0, r3
    3f7c:	4a2a      	ldr	r2, [pc, #168]	; (4028 <pinPeripheral+0xb4>)
    3f7e:	1810      	adds	r0, r2, r0
    3f80:	7a00      	ldrb	r0, [r0, #8]
    3f82:	b240      	sxtb	r0, r0
    3f84:	0004      	movs	r4, r0
    3f86:	3001      	adds	r0, #1
    3f88:	d013      	beq.n	3fb2 <pinPeripheral+0x3e>
    3f8a:	1c48      	adds	r0, r1, #1
    3f8c:	2400      	movs	r4, #0
    3f8e:	280c      	cmp	r0, #12
    3f90:	d80f      	bhi.n	3fb2 <pinPeripheral+0x3e>
    3f92:	f000 fc3d 	bl	4810 <__gnu_thumb1_case_uqi>
    3f96:	1c45      	.short	0x1c45
    3f98:	1c1c1c1c 	.word	0x1c1c1c1c
    3f9c:	071c1c1c 	.word	0x071c1c1c
    3fa0:	0707      	.short	0x0707
    3fa2:	07          	.byte	0x07
    3fa3:	00          	.byte	0x00
    3fa4:	2909      	cmp	r1, #9
    3fa6:	d106      	bne.n	3fb6 <pinPeripheral+0x42>
    3fa8:	2100      	movs	r1, #0
    3faa:	0018      	movs	r0, r3
    3fac:	f7ff ff6a 	bl	3e84 <pinMode>
    3fb0:	2400      	movs	r4, #0
    3fb2:	0020      	movs	r0, r4
    3fb4:	bdf8      	pop	{r3, r4, r5, r6, r7, pc}
    3fb6:	290a      	cmp	r1, #10
    3fb8:	d101      	bne.n	3fbe <pinPeripheral+0x4a>
    3fba:	3908      	subs	r1, #8
    3fbc:	e7f5      	b.n	3faa <pinPeripheral+0x36>
    3fbe:	2400      	movs	r4, #0
    3fc0:	290b      	cmp	r1, #11
    3fc2:	d1f6      	bne.n	3fb2 <pinPeripheral+0x3e>
    3fc4:	390a      	subs	r1, #10
    3fc6:	0018      	movs	r0, r3
    3fc8:	f7ff ff5c 	bl	3e84 <pinMode>
    3fcc:	e7f1      	b.n	3fb2 <pinPeripheral+0x3e>
    3fce:	2018      	movs	r0, #24
    3fd0:	4343      	muls	r3, r0
    3fd2:	18d0      	adds	r0, r2, r3
    3fd4:	6846      	ldr	r6, [r0, #4]
    3fd6:	2501      	movs	r5, #1
    3fd8:	0034      	movs	r4, r6
    3fda:	56d2      	ldrsb	r2, [r2, r3]
    3fdc:	4813      	ldr	r0, [pc, #76]	; (402c <pinPeripheral+0xb8>)
    3fde:	01d2      	lsls	r2, r2, #7
    3fe0:	1812      	adds	r2, r2, r0
    3fe2:	0873      	lsrs	r3, r6, #1
    3fe4:	18d3      	adds	r3, r2, r3
    3fe6:	3330      	adds	r3, #48	; 0x30
    3fe8:	402c      	ands	r4, r5
    3fea:	7818      	ldrb	r0, [r3, #0]
    3fec:	2c00      	cmp	r4, #0
    3fee:	d00b      	beq.n	4008 <pinPeripheral+0x94>
    3ff0:	240f      	movs	r4, #15
    3ff2:	0109      	lsls	r1, r1, #4
    3ff4:	4020      	ands	r0, r4
    3ff6:	4301      	orrs	r1, r0
    3ff8:	b2c9      	uxtb	r1, r1
    3ffa:	1992      	adds	r2, r2, r6
    3ffc:	7019      	strb	r1, [r3, #0]
    3ffe:	3240      	adds	r2, #64	; 0x40
    4000:	7813      	ldrb	r3, [r2, #0]
    4002:	431d      	orrs	r5, r3
    4004:	7015      	strb	r5, [r2, #0]
    4006:	e7d3      	b.n	3fb0 <pinPeripheral+0x3c>
    4008:	270f      	movs	r7, #15
    400a:	43b8      	bics	r0, r7
    400c:	4301      	orrs	r1, r0
    400e:	1992      	adds	r2, r2, r6
    4010:	b2c9      	uxtb	r1, r1
    4012:	7019      	strb	r1, [r3, #0]
    4014:	0013      	movs	r3, r2
    4016:	3340      	adds	r3, #64	; 0x40
    4018:	781a      	ldrb	r2, [r3, #0]
    401a:	4315      	orrs	r5, r2
    401c:	701d      	strb	r5, [r3, #0]
    401e:	e7c8      	b.n	3fb2 <pinPeripheral+0x3e>
    4020:	2401      	movs	r4, #1
    4022:	4264      	negs	r4, r4
    4024:	e7c5      	b.n	3fb2 <pinPeripheral+0x3e>
    4026:	46c0      	nop			; (mov r8, r8)
    4028:	00004c64 	.word	0x00004c64
    402c:	41004400 	.word	0x41004400

00004030 <_Z11initVariantv>:
    4030:	b510      	push	{r4, lr}
    4032:	2101      	movs	r1, #1
    4034:	201e      	movs	r0, #30
    4036:	f7ff ff25 	bl	3e84 <pinMode>
    403a:	2101      	movs	r1, #1
    403c:	201e      	movs	r0, #30
    403e:	f7ff ff6d 	bl	3f1c <digitalWrite>
    4042:	2101      	movs	r1, #1
    4044:	201f      	movs	r0, #31
    4046:	f7ff ff1d 	bl	3e84 <pinMode>
    404a:	2101      	movs	r1, #1
    404c:	201f      	movs	r0, #31
    404e:	f7ff ff65 	bl	3f1c <digitalWrite>
    4052:	bd10      	pop	{r4, pc}

00004054 <SERCOM5_Handler>:
    4054:	b510      	push	{r4, lr}
    4056:	4802      	ldr	r0, [pc, #8]	; (4060 <SERCOM5_Handler+0xc>)
    4058:	f000 faf3 	bl	4642 <_ZN4Uart10IrqHandlerEv>
    405c:	bd10      	pop	{r4, pc}
    405e:	46c0      	nop			; (mov r8, r8)
    4060:	20000f28 	.word	0x20000f28

00004064 <SERCOM4_Handler>:
    4064:	b510      	push	{r4, lr}
    4066:	4802      	ldr	r0, [pc, #8]	; (4070 <SERCOM4_Handler+0xc>)
    4068:	f000 faeb 	bl	4642 <_ZN4Uart10IrqHandlerEv>
    406c:	bd10      	pop	{r4, pc}
    406e:	46c0      	nop			; (mov r8, r8)
    4070:	20001164 	.word	0x20001164

00004074 <_GLOBAL__sub_I_g_APinDescription>:
    4074:	b57f      	push	{r0, r1, r2, r3, r4, r5, r6, lr}
    4076:	4919      	ldr	r1, [pc, #100]	; (40dc <_GLOBAL__sub_I_g_APinDescription+0x68>)
    4078:	4819      	ldr	r0, [pc, #100]	; (40e0 <_GLOBAL__sub_I_g_APinDescription+0x6c>)
    407a:	f000 f853 	bl	4124 <_ZN6SERCOMC1EP6Sercom>
    407e:	4919      	ldr	r1, [pc, #100]	; (40e4 <_GLOBAL__sub_I_g_APinDescription+0x70>)
    4080:	4819      	ldr	r0, [pc, #100]	; (40e8 <_GLOBAL__sub_I_g_APinDescription+0x74>)
    4082:	f000 f84f 	bl	4124 <_ZN6SERCOMC1EP6Sercom>
    4086:	4919      	ldr	r1, [pc, #100]	; (40ec <_GLOBAL__sub_I_g_APinDescription+0x78>)
    4088:	4819      	ldr	r0, [pc, #100]	; (40f0 <_GLOBAL__sub_I_g_APinDescription+0x7c>)
    408a:	f000 f84b 	bl	4124 <_ZN6SERCOMC1EP6Sercom>
    408e:	4919      	ldr	r1, [pc, #100]	; (40f4 <_GLOBAL__sub_I_g_APinDescription+0x80>)
    4090:	4819      	ldr	r0, [pc, #100]	; (40f8 <_GLOBAL__sub_I_g_APinDescription+0x84>)
    4092:	f000 f847 	bl	4124 <_ZN6SERCOMC1EP6Sercom>
    4096:	4c19      	ldr	r4, [pc, #100]	; (40fc <_GLOBAL__sub_I_g_APinDescription+0x88>)
    4098:	4919      	ldr	r1, [pc, #100]	; (4100 <_GLOBAL__sub_I_g_APinDescription+0x8c>)
    409a:	0020      	movs	r0, r4
    409c:	f000 f842 	bl	4124 <_ZN6SERCOMC1EP6Sercom>
    40a0:	4e18      	ldr	r6, [pc, #96]	; (4104 <_GLOBAL__sub_I_g_APinDescription+0x90>)
    40a2:	4919      	ldr	r1, [pc, #100]	; (4108 <_GLOBAL__sub_I_g_APinDescription+0x94>)
    40a4:	0030      	movs	r0, r6
    40a6:	f000 f83d 	bl	4124 <_ZN6SERCOMC1EP6Sercom>
    40aa:	2501      	movs	r5, #1
    40ac:	2303      	movs	r3, #3
    40ae:	0031      	movs	r1, r6
    40b0:	9501      	str	r5, [sp, #4]
    40b2:	9300      	str	r3, [sp, #0]
    40b4:	220d      	movs	r2, #13
    40b6:	330b      	adds	r3, #11
    40b8:	4814      	ldr	r0, [pc, #80]	; (410c <_GLOBAL__sub_I_g_APinDescription+0x98>)
    40ba:	f000 fa57 	bl	456c <_ZN4UartC1EP6SERCOMhh11SercomRXPad15SercomUartTXPad>
    40be:	231d      	movs	r3, #29
    40c0:	9303      	str	r3, [sp, #12]
    40c2:	3b01      	subs	r3, #1
    40c4:	9302      	str	r3, [sp, #8]
    40c6:	3b1a      	subs	r3, #26
    40c8:	9301      	str	r3, [sp, #4]
    40ca:	9500      	str	r5, [sp, #0]
    40cc:	3318      	adds	r3, #24
    40ce:	221b      	movs	r2, #27
    40d0:	0021      	movs	r1, r4
    40d2:	480f      	ldr	r0, [pc, #60]	; (4110 <_GLOBAL__sub_I_g_APinDescription+0x9c>)
    40d4:	f000 fa06 	bl	44e4 <_ZN4UartC1EP6SERCOMhh11SercomRXPad15SercomUartTXPadhh>
    40d8:	bd7f      	pop	{r0, r1, r2, r3, r4, r5, r6, pc}
    40da:	46c0      	nop			; (mov r8, r8)
    40dc:	42000800 	.word	0x42000800
    40e0:	200013a0 	.word	0x200013a0
    40e4:	42000c00 	.word	0x42000c00
    40e8:	200013a4 	.word	0x200013a4
    40ec:	42001000 	.word	0x42001000
    40f0:	200013a8 	.word	0x200013a8
    40f4:	42001400 	.word	0x42001400
    40f8:	200013ac 	.word	0x200013ac
    40fc:	200013b0 	.word	0x200013b0
    4100:	42001800 	.word	0x42001800
    4104:	200013b4 	.word	0x200013b4
    4108:	42001c00 	.word	0x42001c00
    410c:	20000f28 	.word	0x20000f28
    4110:	20001164 	.word	0x20001164

00004114 <_Znwj>:
    4114:	b510      	push	{r4, lr}
    4116:	f000 fc35 	bl	4984 <malloc>
    411a:	bd10      	pop	{r4, pc}

0000411c <_ZdlPv>:
    411c:	b510      	push	{r4, lr}
    411e:	f000 fc3b 	bl	4998 <free>
    4122:	bd10      	pop	{r4, pc}

00004124 <_ZN6SERCOMC1EP6Sercom>:
    4124:	6001      	str	r1, [r0, #0]
    4126:	4770      	bx	lr

00004128 <_ZN6SERCOM9initFrameE18SercomUartCharSize15SercomDataOrder16SercomParityMode19SercomNumberStopBit>:
    4128:	b5f0      	push	{r4, r5, r6, r7, lr}
    412a:	ac05      	add	r4, sp, #20
    412c:	7825      	ldrb	r5, [r4, #0]
    412e:	6804      	ldr	r4, [r0, #0]
    4130:	1e98      	subs	r0, r3, #2
    4132:	1e47      	subs	r7, r0, #1
    4134:	41b8      	sbcs	r0, r7
    4136:	6826      	ldr	r6, [r4, #0]
    4138:	0792      	lsls	r2, r2, #30
    413a:	0600      	lsls	r0, r0, #24
    413c:	4332      	orrs	r2, r6
    413e:	4302      	orrs	r2, r0
    4140:	2007      	movs	r0, #7
    4142:	6022      	str	r2, [r4, #0]
    4144:	4001      	ands	r1, r0
    4146:	01ad      	lsls	r5, r5, #6
    4148:	6862      	ldr	r2, [r4, #4]
    414a:	4329      	orrs	r1, r5
    414c:	2000      	movs	r0, #0
    414e:	2b02      	cmp	r3, #2
    4150:	d000      	beq.n	4154 <_ZN6SERCOM9initFrameE18SercomUartCharSize15SercomDataOrder16SercomParityMode19SercomNumberStopBit+0x2c>
    4152:	0358      	lsls	r0, r3, #13
    4154:	4311      	orrs	r1, r2
    4156:	4301      	orrs	r1, r0
    4158:	6061      	str	r1, [r4, #4]
    415a:	bdf0      	pop	{r4, r5, r6, r7, pc}

0000415c <_ZN6SERCOM8initPadsE15SercomUartTXPad11SercomRXPad>:
    415c:	b510      	push	{r4, lr}
    415e:	24c0      	movs	r4, #192	; 0xc0
    4160:	6803      	ldr	r3, [r0, #0]
    4162:	03a4      	lsls	r4, r4, #14
    4164:	6818      	ldr	r0, [r3, #0]
    4166:	0512      	lsls	r2, r2, #20
    4168:	4022      	ands	r2, r4
    416a:	4302      	orrs	r2, r0
    416c:	20c0      	movs	r0, #192	; 0xc0
    416e:	0409      	lsls	r1, r1, #16
    4170:	0280      	lsls	r0, r0, #10
    4172:	4001      	ands	r1, r0
    4174:	4311      	orrs	r1, r2
    4176:	6019      	str	r1, [r3, #0]
    4178:	685a      	ldr	r2, [r3, #4]
    417a:	4310      	orrs	r0, r2
    417c:	6058      	str	r0, [r3, #4]
    417e:	bd10      	pop	{r4, pc}

00004180 <_ZN6SERCOM9resetUARTEv>:
    4180:	2201      	movs	r2, #1
    4182:	6803      	ldr	r3, [r0, #0]
    4184:	6819      	ldr	r1, [r3, #0]
    4186:	430a      	orrs	r2, r1
    4188:	601a      	str	r2, [r3, #0]
    418a:	681a      	ldr	r2, [r3, #0]
    418c:	07d2      	lsls	r2, r2, #31
    418e:	d4fc      	bmi.n	418a <_ZN6SERCOM9resetUARTEv+0xa>
    4190:	69da      	ldr	r2, [r3, #28]
    4192:	07d2      	lsls	r2, r2, #31
    4194:	d4f9      	bmi.n	418a <_ZN6SERCOM9resetUARTEv+0xa>
    4196:	4770      	bx	lr

00004198 <_ZN6SERCOM10enableUARTEv>:
    4198:	2202      	movs	r2, #2
    419a:	6803      	ldr	r3, [r0, #0]
    419c:	6819      	ldr	r1, [r3, #0]
    419e:	430a      	orrs	r2, r1
    41a0:	601a      	str	r2, [r3, #0]
    41a2:	69da      	ldr	r2, [r3, #28]
    41a4:	0792      	lsls	r2, r2, #30
    41a6:	d4fc      	bmi.n	41a2 <_ZN6SERCOM10enableUARTEv+0xa>
    41a8:	4770      	bx	lr

000041aa <_ZN6SERCOM9flushUARTEv>:
    41aa:	6803      	ldr	r3, [r0, #0]
    41ac:	7e1a      	ldrb	r2, [r3, #24]
    41ae:	07d2      	lsls	r2, r2, #31
    41b0:	d402      	bmi.n	41b8 <_ZN6SERCOM9flushUARTEv+0xe>
    41b2:	7e1a      	ldrb	r2, [r3, #24]
    41b4:	0792      	lsls	r2, r2, #30
    41b6:	d5fc      	bpl.n	41b2 <_ZN6SERCOM9flushUARTEv+0x8>
    41b8:	4770      	bx	lr

000041ba <_ZN6SERCOM15clearStatusUARTEv>:
    41ba:	2200      	movs	r2, #0
    41bc:	6803      	ldr	r3, [r0, #0]
    41be:	835a      	strh	r2, [r3, #26]
    41c0:	4770      	bx	lr

000041c2 <_ZN6SERCOM17availableDataUARTEv>:
    41c2:	6803      	ldr	r3, [r0, #0]
    41c4:	7e18      	ldrb	r0, [r3, #24]
    41c6:	0740      	lsls	r0, r0, #29
    41c8:	0fc0      	lsrs	r0, r0, #31
    41ca:	4770      	bx	lr

000041cc <_ZN6SERCOM11isUARTErrorEv>:
    41cc:	6803      	ldr	r3, [r0, #0]
    41ce:	7e18      	ldrb	r0, [r3, #24]
    41d0:	09c0      	lsrs	r0, r0, #7
    41d2:	4770      	bx	lr

000041d4 <_ZN6SERCOM20acknowledgeUARTErrorEv>:
    41d4:	2380      	movs	r3, #128	; 0x80
    41d6:	6802      	ldr	r2, [r0, #0]
    41d8:	425b      	negs	r3, r3
    41da:	7e11      	ldrb	r1, [r2, #24]
    41dc:	430b      	orrs	r3, r1
    41de:	7613      	strb	r3, [r2, #24]
    41e0:	4770      	bx	lr

000041e2 <_ZN6SERCOM16isFrameErrorUARTEv>:
    41e2:	6803      	ldr	r3, [r0, #0]
    41e4:	8b58      	ldrh	r0, [r3, #26]
    41e6:	0780      	lsls	r0, r0, #30
    41e8:	0fc0      	lsrs	r0, r0, #31
    41ea:	4770      	bx	lr

000041ec <_ZN6SERCOM19clearFrameErrorUARTEv>:
    41ec:	2302      	movs	r3, #2
    41ee:	6802      	ldr	r2, [r0, #0]
    41f0:	8b51      	ldrh	r1, [r2, #26]
    41f2:	430b      	orrs	r3, r1
    41f4:	8353      	strh	r3, [r2, #26]
    41f6:	4770      	bx	lr

000041f8 <_ZN6SERCOM23isDataRegisterEmptyUARTEv>:
    41f8:	6803      	ldr	r3, [r0, #0]
    41fa:	7e18      	ldrb	r0, [r3, #24]
    41fc:	07c0      	lsls	r0, r0, #31
    41fe:	0fc0      	lsrs	r0, r0, #31
    4200:	4770      	bx	lr

00004202 <_ZN6SERCOM12readDataUARTEv>:
    4202:	6803      	ldr	r3, [r0, #0]
    4204:	8d18      	ldrh	r0, [r3, #40]	; 0x28
    4206:	b2c0      	uxtb	r0, r0
    4208:	4770      	bx	lr

0000420a <_ZN6SERCOM13writeDataUARTEh>:
    420a:	6803      	ldr	r3, [r0, #0]
    420c:	7e1a      	ldrb	r2, [r3, #24]
    420e:	07d2      	lsls	r2, r2, #31
    4210:	d5fc      	bpl.n	420c <_ZN6SERCOM13writeDataUARTEh+0x2>
    4212:	b289      	uxth	r1, r1
    4214:	2001      	movs	r0, #1
    4216:	8519      	strh	r1, [r3, #40]	; 0x28
    4218:	4770      	bx	lr

0000421a <_ZN6SERCOM36enableDataRegisterEmptyInterruptUARTEv>:
    421a:	2201      	movs	r2, #1
    421c:	6803      	ldr	r3, [r0, #0]
    421e:	759a      	strb	r2, [r3, #22]
    4220:	4770      	bx	lr

00004222 <_ZN6SERCOM37disableDataRegisterEmptyInterruptUARTEv>:
    4222:	2201      	movs	r2, #1
    4224:	6803      	ldr	r3, [r0, #0]
    4226:	751a      	strb	r2, [r3, #20]
    4228:	4770      	bx	lr
	...

0000422c <_ZN6SERCOM13initClockNVICEv>:
    422c:	6803      	ldr	r3, [r0, #0]
    422e:	4a21      	ldr	r2, [pc, #132]	; (42b4 <_ZN6SERCOM13initClockNVICEv+0x88>)
    4230:	b530      	push	{r4, r5, lr}
    4232:	4293      	cmp	r3, r2
    4234:	d011      	beq.n	425a <_ZN6SERCOM13initClockNVICEv+0x2e>
    4236:	4a20      	ldr	r2, [pc, #128]	; (42b8 <_ZN6SERCOM13initClockNVICEv+0x8c>)
    4238:	4293      	cmp	r3, r2
    423a:	d02f      	beq.n	429c <_ZN6SERCOM13initClockNVICEv+0x70>
    423c:	4a1f      	ldr	r2, [pc, #124]	; (42bc <_ZN6SERCOM13initClockNVICEv+0x90>)
    423e:	4293      	cmp	r3, r2
    4240:	d02f      	beq.n	42a2 <_ZN6SERCOM13initClockNVICEv+0x76>
    4242:	4a1f      	ldr	r2, [pc, #124]	; (42c0 <_ZN6SERCOM13initClockNVICEv+0x94>)
    4244:	4293      	cmp	r3, r2
    4246:	d02f      	beq.n	42a8 <_ZN6SERCOM13initClockNVICEv+0x7c>
    4248:	4a1e      	ldr	r2, [pc, #120]	; (42c4 <_ZN6SERCOM13initClockNVICEv+0x98>)
    424a:	4293      	cmp	r3, r2
    424c:	d02f      	beq.n	42ae <_ZN6SERCOM13initClockNVICEv+0x82>
    424e:	4a1e      	ldr	r2, [pc, #120]	; (42c8 <_ZN6SERCOM13initClockNVICEv+0x9c>)
    4250:	4293      	cmp	r3, r2
    4252:	d122      	bne.n	429a <_ZN6SERCOM13initClockNVICEv+0x6e>
    4254:	230e      	movs	r3, #14
    4256:	2219      	movs	r2, #25
    4258:	e001      	b.n	425e <_ZN6SERCOM13initClockNVICEv+0x32>
    425a:	2309      	movs	r3, #9
    425c:	2214      	movs	r2, #20
    NVIC->ISER[0U] = (uint32_t)(1UL << (((uint32_t)IRQn) & 0x1FUL));
    425e:	2101      	movs	r1, #1
    NVIC->IP[_IP_IDX(IRQn)]  = ((uint32_t)(NVIC->IP[_IP_IDX(IRQn)]  & ~(0xFFUL << _BIT_SHIFT(IRQn))) |
    4260:	2503      	movs	r5, #3
    NVIC->ISER[0U] = (uint32_t)(1UL << (((uint32_t)IRQn) & 0x1FUL));
    4262:	4099      	lsls	r1, r3
    4264:	4819      	ldr	r0, [pc, #100]	; (42cc <_ZN6SERCOM13initClockNVICEv+0xa0>)
    NVIC->IP[_IP_IDX(IRQn)]  = ((uint32_t)(NVIC->IP[_IP_IDX(IRQn)]  & ~(0xFFUL << _BIT_SHIFT(IRQn))) |
    4266:	24c0      	movs	r4, #192	; 0xc0
    NVIC->ISER[0U] = (uint32_t)(1UL << (((uint32_t)IRQn) & 0x1FUL));
    4268:	6001      	str	r1, [r0, #0]
    NVIC->IP[_IP_IDX(IRQn)]  = ((uint32_t)(NVIC->IP[_IP_IDX(IRQn)]  & ~(0xFFUL << _BIT_SHIFT(IRQn))) |
    426a:	0899      	lsrs	r1, r3, #2
    426c:	402b      	ands	r3, r5
    426e:	40ab      	lsls	r3, r5
    4270:	35fc      	adds	r5, #252	; 0xfc
    4272:	409d      	lsls	r5, r3
    4274:	0089      	lsls	r1, r1, #2
    4276:	1809      	adds	r1, r1, r0
    4278:	00a4      	lsls	r4, r4, #2
    427a:	5908      	ldr	r0, [r1, r4]
    427c:	43a8      	bics	r0, r5
       (((priority << (8U - __NVIC_PRIO_BITS)) & (uint32_t)0xFFUL) << _BIT_SHIFT(IRQn)));
    427e:	25c0      	movs	r5, #192	; 0xc0
    4280:	409d      	lsls	r5, r3
    4282:	002b      	movs	r3, r5
    NVIC->IP[_IP_IDX(IRQn)]  = ((uint32_t)(NVIC->IP[_IP_IDX(IRQn)]  & ~(0xFFUL << _BIT_SHIFT(IRQn))) |
    4284:	4303      	orrs	r3, r0
    4286:	510b      	str	r3, [r1, r4]
    4288:	2380      	movs	r3, #128	; 0x80
    428a:	01db      	lsls	r3, r3, #7
    428c:	431a      	orrs	r2, r3
    428e:	4b10      	ldr	r3, [pc, #64]	; (42d0 <_ZN6SERCOM13initClockNVICEv+0xa4>)
    4290:	805a      	strh	r2, [r3, #2]
    4292:	785a      	ldrb	r2, [r3, #1]
    4294:	b252      	sxtb	r2, r2
    4296:	2a00      	cmp	r2, #0
    4298:	dbfb      	blt.n	4292 <_ZN6SERCOM13initClockNVICEv+0x66>
    429a:	bd30      	pop	{r4, r5, pc}
    429c:	230a      	movs	r3, #10
    429e:	2215      	movs	r2, #21
    42a0:	e7dd      	b.n	425e <_ZN6SERCOM13initClockNVICEv+0x32>
    42a2:	230b      	movs	r3, #11
    42a4:	2216      	movs	r2, #22
    42a6:	e7da      	b.n	425e <_ZN6SERCOM13initClockNVICEv+0x32>
    42a8:	230c      	movs	r3, #12
    42aa:	2217      	movs	r2, #23
    42ac:	e7d7      	b.n	425e <_ZN6SERCOM13initClockNVICEv+0x32>
    42ae:	230d      	movs	r3, #13
    42b0:	2218      	movs	r2, #24
    42b2:	e7d4      	b.n	425e <_ZN6SERCOM13initClockNVICEv+0x32>
    42b4:	42000800 	.word	0x42000800
    42b8:	42000c00 	.word	0x42000c00
    42bc:	42001000 	.word	0x42001000
    42c0:	42001400 	.word	0x42001400
    42c4:	42001800 	.word	0x42001800
    42c8:	42001c00 	.word	0x42001c00
    42cc:	e000e100 	.word	0xe000e100
    42d0:	40000c00 	.word	0x40000c00

000042d4 <_ZN6SERCOM8initUARTE14SercomUartMode20SercomUartSampleRatem>:
    42d4:	b5f8      	push	{r3, r4, r5, r6, r7, lr}
    42d6:	0004      	movs	r4, r0
    42d8:	0016      	movs	r6, r2
    42da:	000f      	movs	r7, r1
    42dc:	001d      	movs	r5, r3
    42de:	f7ff ffa5 	bl	422c <_ZN6SERCOM13initClockNVICEv>
    42e2:	0020      	movs	r0, r4
    42e4:	f7ff ff4c 	bl	4180 <_ZN6SERCOM9resetUARTEv>
    42e8:	221c      	movs	r2, #28
    42ea:	00bb      	lsls	r3, r7, #2
    42ec:	4013      	ands	r3, r2
    42ee:	0772      	lsls	r2, r6, #29
    42f0:	6824      	ldr	r4, [r4, #0]
    42f2:	0c12      	lsrs	r2, r2, #16
    42f4:	4313      	orrs	r3, r2
    42f6:	6023      	str	r3, [r4, #0]
    42f8:	2384      	movs	r3, #132	; 0x84
    42fa:	75a3      	strb	r3, [r4, #22]
    42fc:	2f01      	cmp	r7, #1
    42fe:	d118      	bne.n	4332 <_ZN6SERCOM8initUARTE14SercomUartMode20SercomUartSampleRatem+0x5e>
    4300:	2110      	movs	r1, #16
    4302:	2e01      	cmp	r6, #1
    4304:	d000      	beq.n	4308 <_ZN6SERCOM8initUARTE14SercomUartMode20SercomUartSampleRatem+0x34>
    4306:	3908      	subs	r1, #8
    4308:	4b0a      	ldr	r3, [pc, #40]	; (4334 <_ZN6SERCOM8initUARTE14SercomUartMode20SercomUartSampleRatem+0x60>)
    430a:	4369      	muls	r1, r5
    430c:	6818      	ldr	r0, [r3, #0]
    430e:	00c0      	lsls	r0, r0, #3
    4310:	f000 fa88 	bl	4824 <__udivsi3>
    4314:	2207      	movs	r2, #7
    4316:	89a3      	ldrh	r3, [r4, #12]
    4318:	4002      	ands	r2, r0
    431a:	04db      	lsls	r3, r3, #19
    431c:	0352      	lsls	r2, r2, #13
    431e:	0cdb      	lsrs	r3, r3, #19
    4320:	4313      	orrs	r3, r2
    4322:	81a3      	strh	r3, [r4, #12]
    4324:	0403      	lsls	r3, r0, #16
    4326:	89a0      	ldrh	r0, [r4, #12]
    4328:	0cdb      	lsrs	r3, r3, #19
    432a:	0b40      	lsrs	r0, r0, #13
    432c:	0340      	lsls	r0, r0, #13
    432e:	4318      	orrs	r0, r3
    4330:	81a0      	strh	r0, [r4, #12]
    4332:	bdf8      	pop	{r3, r4, r5, r6, r7, pc}
    4334:	20000014 	.word	0x20000014

00004338 <_ZN4UartcvbEv>:
    4338:	2001      	movs	r0, #1
    433a:	4770      	bx	lr

0000433c <_ZN4Uart5beginEm>:
    433c:	b510      	push	{r4, lr}
    433e:	6803      	ldr	r3, [r0, #0]
    4340:	4a01      	ldr	r2, [pc, #4]	; (4348 <_ZN4Uart5beginEm+0xc>)
    4342:	6a1b      	ldr	r3, [r3, #32]
    4344:	4798      	blx	r3
    4346:	bd10      	pop	{r4, pc}
    4348:	00000413 	.word	0x00000413

0000434c <_ZN4Uart4peekEv>:
    434c:	0003      	movs	r3, r0
    434e:	33fc      	adds	r3, #252	; 0xfc
    4350:	69d9      	ldr	r1, [r3, #28]
    4352:	699a      	ldr	r2, [r3, #24]
    4354:	4291      	cmp	r1, r2
    4356:	d003      	beq.n	4360 <_ZN4Uart4peekEv+0x14>
    4358:	69db      	ldr	r3, [r3, #28]
    435a:	18c0      	adds	r0, r0, r3
    435c:	7d00      	ldrb	r0, [r0, #20]
    435e:	4770      	bx	lr
    4360:	2001      	movs	r0, #1
    4362:	4240      	negs	r0, r0
    4364:	e7fb      	b.n	435e <_ZN4Uart4peekEv+0x12>

00004366 <_ZN4Uart3endEv>:
    4366:	b510      	push	{r4, lr}
    4368:	0004      	movs	r4, r0
    436a:	6900      	ldr	r0, [r0, #16]
    436c:	f7ff ff08 	bl	4180 <_ZN6SERCOM9resetUARTEv>
    4370:	0022      	movs	r2, r4
    4372:	2300      	movs	r3, #0
    4374:	32fc      	adds	r2, #252	; 0xfc
    4376:	6193      	str	r3, [r2, #24]
    4378:	61d3      	str	r3, [r2, #28]
    437a:	2286      	movs	r2, #134	; 0x86
    437c:	0092      	lsls	r2, r2, #2
    437e:	18a4      	adds	r4, r4, r2
    4380:	6063      	str	r3, [r4, #4]
    4382:	60a3      	str	r3, [r4, #8]
    4384:	bd10      	pop	{r4, pc}

00004386 <_ZN4Uart16extractNbStopBitEt>:
    4386:	20f0      	movs	r0, #240	; 0xf0
    4388:	4001      	ands	r1, r0
    438a:	3930      	subs	r1, #48	; 0x30
    438c:	4248      	negs	r0, r1
    438e:	4148      	adcs	r0, r1
    4390:	4770      	bx	lr

00004392 <_ZN4Uart15extractCharSizeEt>:
    4392:	23f0      	movs	r3, #240	; 0xf0
    4394:	011b      	lsls	r3, r3, #4
    4396:	4019      	ands	r1, r3
    4398:	2380      	movs	r3, #128	; 0x80
    439a:	2006      	movs	r0, #6
    439c:	009b      	lsls	r3, r3, #2
    439e:	4299      	cmp	r1, r3
    43a0:	d00a      	beq.n	43b8 <_ZN4Uart15extractCharSizeEt+0x26>
    43a2:	3301      	adds	r3, #1
    43a4:	33ff      	adds	r3, #255	; 0xff
    43a6:	3001      	adds	r0, #1
    43a8:	4299      	cmp	r1, r3
    43aa:	d005      	beq.n	43b8 <_ZN4Uart15extractCharSizeEt+0x26>
    43ac:	2380      	movs	r3, #128	; 0x80
    43ae:	3802      	subs	r0, #2
    43b0:	005b      	lsls	r3, r3, #1
    43b2:	4299      	cmp	r1, r3
    43b4:	d000      	beq.n	43b8 <_ZN4Uart15extractCharSizeEt+0x26>
    43b6:	2000      	movs	r0, #0
    43b8:	4770      	bx	lr

000043ba <_ZN4Uart13extractParityEt>:
    43ba:	200f      	movs	r0, #15
    43bc:	4001      	ands	r1, r0
    43be:	2000      	movs	r0, #0
    43c0:	2901      	cmp	r1, #1
    43c2:	d003      	beq.n	43cc <_ZN4Uart13extractParityEt+0x12>
    43c4:	3902      	subs	r1, #2
    43c6:	1e48      	subs	r0, r1, #1
    43c8:	4181      	sbcs	r1, r0
    43ca:	1c48      	adds	r0, r1, #1
    43cc:	4770      	bx	lr
	...

000043d0 <_ZN4Uart5beginEmt>:
    43d0:	2389      	movs	r3, #137	; 0x89
    43d2:	b5f0      	push	{r4, r5, r6, r7, lr}
    43d4:	2618      	movs	r6, #24
    43d6:	b085      	sub	sp, #20
    43d8:	9102      	str	r1, [sp, #8]
    43da:	009b      	lsls	r3, r3, #2
    43dc:	0004      	movs	r4, r0
    43de:	5cc0      	ldrb	r0, [r0, r3]
    43e0:	0033      	movs	r3, r6
    43e2:	2108      	movs	r1, #8
    43e4:	4343      	muls	r3, r0
    43e6:	4d32      	ldr	r5, [pc, #200]	; (44b0 <_ZN4Uart5beginEmt+0xe0>)
    43e8:	0017      	movs	r7, r2
    43ea:	18eb      	adds	r3, r5, r3
    43ec:	5659      	ldrsb	r1, [r3, r1]
    43ee:	f7ff fdc1 	bl	3f74 <pinPeripheral>
    43f2:	4b30      	ldr	r3, [pc, #192]	; (44b4 <_ZN4Uart5beginEmt+0xe4>)
    43f4:	2108      	movs	r1, #8
    43f6:	5ce0      	ldrb	r0, [r4, r3]
    43f8:	0033      	movs	r3, r6
    43fa:	4343      	muls	r3, r0
    43fc:	18eb      	adds	r3, r5, r3
    43fe:	5659      	ldrsb	r1, [r3, r1]
    4400:	f7ff fdb8 	bl	3f74 <pinPeripheral>
    4404:	4b2c      	ldr	r3, [pc, #176]	; (44b8 <_ZN4Uart5beginEmt+0xe8>)
    4406:	5ce2      	ldrb	r2, [r4, r3]
    4408:	9303      	str	r3, [sp, #12]
    440a:	2a02      	cmp	r2, #2
    440c:	d109      	bne.n	4422 <_ZN4Uart5beginEmt+0x52>
    440e:	3311      	adds	r3, #17
    4410:	5ce0      	ldrb	r0, [r4, r3]
    4412:	28ff      	cmp	r0, #255	; 0xff
    4414:	d005      	beq.n	4422 <_ZN4Uart5beginEmt+0x52>
    4416:	2108      	movs	r1, #8
    4418:	4346      	muls	r6, r0
    441a:	19ae      	adds	r6, r5, r6
    441c:	5671      	ldrsb	r1, [r6, r1]
    441e:	f7ff fda9 	bl	3f74 <pinPeripheral>
    4422:	268a      	movs	r6, #138	; 0x8a
    4424:	00b6      	lsls	r6, r6, #2
    4426:	5da0      	ldrb	r0, [r4, r6]
    4428:	28ff      	cmp	r0, #255	; 0xff
    442a:	d019      	beq.n	4460 <_ZN4Uart5beginEmt+0x90>
    442c:	2101      	movs	r1, #1
    442e:	f7ff fd29 	bl	3e84 <pinMode>
    4432:	2218      	movs	r2, #24
    4434:	5da3      	ldrb	r3, [r4, r6]
    4436:	4921      	ldr	r1, [pc, #132]	; (44bc <_ZN4Uart5beginEmt+0xec>)
    4438:	435a      	muls	r2, r3
    443a:	56ab      	ldrsb	r3, [r5, r2]
    443c:	18ad      	adds	r5, r5, r2
    443e:	01db      	lsls	r3, r3, #7
    4440:	1858      	adds	r0, r3, r1
    4442:	218b      	movs	r1, #139	; 0x8b
    4444:	0089      	lsls	r1, r1, #2
    4446:	5060      	str	r0, [r4, r1]
    4448:	491d      	ldr	r1, [pc, #116]	; (44c0 <_ZN4Uart5beginEmt+0xf0>)
    444a:	2201      	movs	r2, #1
    444c:	185b      	adds	r3, r3, r1
    444e:	218c      	movs	r1, #140	; 0x8c
    4450:	0089      	lsls	r1, r1, #2
    4452:	5063      	str	r3, [r4, r1]
    4454:	6869      	ldr	r1, [r5, #4]
    4456:	408a      	lsls	r2, r1
    4458:	218d      	movs	r1, #141	; 0x8d
    445a:	0089      	lsls	r1, r1, #2
    445c:	5062      	str	r2, [r4, r1]
    445e:	601a      	str	r2, [r3, #0]
    4460:	2201      	movs	r2, #1
    4462:	9b02      	ldr	r3, [sp, #8]
    4464:	0011      	movs	r1, r2
    4466:	6920      	ldr	r0, [r4, #16]
    4468:	f7ff ff34 	bl	42d4 <_ZN6SERCOM8initUARTE14SercomUartMode20SercomUartSampleRatem>
    446c:	0039      	movs	r1, r7
    446e:	0020      	movs	r0, r4
    4470:	f7ff ff8f 	bl	4392 <_ZN4Uart15extractCharSizeEt>
    4474:	0039      	movs	r1, r7
    4476:	0005      	movs	r5, r0
    4478:	0020      	movs	r0, r4
    447a:	f7ff ff9e 	bl	43ba <_ZN4Uart13extractParityEt>
    447e:	0039      	movs	r1, r7
    4480:	0006      	movs	r6, r0
    4482:	0020      	movs	r0, r4
    4484:	f7ff ff7f 	bl	4386 <_ZN4Uart16extractNbStopBitEt>
    4488:	0033      	movs	r3, r6
    448a:	9000      	str	r0, [sp, #0]
    448c:	0029      	movs	r1, r5
    448e:	6920      	ldr	r0, [r4, #16]
    4490:	2201      	movs	r2, #1
    4492:	f7ff fe49 	bl	4128 <_ZN6SERCOM9initFrameE18SercomUartCharSize15SercomDataOrder16SercomParityMode19SercomNumberStopBit>
    4496:	4b0b      	ldr	r3, [pc, #44]	; (44c4 <_ZN4Uart5beginEmt+0xf4>)
    4498:	6920      	ldr	r0, [r4, #16]
    449a:	5ce2      	ldrb	r2, [r4, r3]
    449c:	9b03      	ldr	r3, [sp, #12]
    449e:	5ce1      	ldrb	r1, [r4, r3]
    44a0:	f7ff fe5c 	bl	415c <_ZN6SERCOM8initPadsE15SercomUartTXPad11SercomRXPad>
    44a4:	6920      	ldr	r0, [r4, #16]
    44a6:	f7ff fe77 	bl	4198 <_ZN6SERCOM10enableUARTEv>
    44aa:	b005      	add	sp, #20
    44ac:	bdf0      	pop	{r4, r5, r6, r7, pc}
    44ae:	46c0      	nop			; (mov r8, r8)
    44b0:	00004c64 	.word	0x00004c64
    44b4:	00000225 	.word	0x00000225
    44b8:	00000227 	.word	0x00000227
    44bc:	41004418 	.word	0x41004418
    44c0:	41004414 	.word	0x41004414
    44c4:	00000226 	.word	0x00000226

000044c8 <_ZN11RingBufferNILi256EEC1Ev>:
    44c8:	2280      	movs	r2, #128	; 0x80
    44ca:	b510      	push	{r4, lr}
    44cc:	0004      	movs	r4, r0
    44ce:	0052      	lsls	r2, r2, #1
    44d0:	2100      	movs	r1, #0
    44d2:	f000 fa74 	bl	49be <memset>
    44d6:	0023      	movs	r3, r4
    44d8:	2200      	movs	r2, #0
    44da:	33fc      	adds	r3, #252	; 0xfc
    44dc:	605a      	str	r2, [r3, #4]
    44de:	0020      	movs	r0, r4
    44e0:	609a      	str	r2, [r3, #8]
    44e2:	bd10      	pop	{r4, pc}

000044e4 <_ZN4UartC1EP6SERCOMhh11SercomRXPad15SercomUartTXPadhh>:
    44e4:	b5f0      	push	{r4, r5, r6, r7, lr}
    44e6:	b085      	sub	sp, #20
    44e8:	001d      	movs	r5, r3
    44ea:	ab0a      	add	r3, sp, #40	; 0x28
    44ec:	781b      	ldrb	r3, [r3, #0]
    44ee:	0004      	movs	r4, r0
    44f0:	9300      	str	r3, [sp, #0]
    44f2:	ab0b      	add	r3, sp, #44	; 0x2c
    44f4:	781b      	ldrb	r3, [r3, #0]
    44f6:	0016      	movs	r6, r2
    44f8:	9301      	str	r3, [sp, #4]
    44fa:	ab0c      	add	r3, sp, #48	; 0x30
    44fc:	781b      	ldrb	r3, [r3, #0]
    44fe:	000f      	movs	r7, r1
    4500:	9302      	str	r3, [sp, #8]
    4502:	ab0d      	add	r3, sp, #52	; 0x34
    4504:	781b      	ldrb	r3, [r3, #0]
    4506:	9303      	str	r3, [sp, #12]
    4508:	2300      	movs	r3, #0
    450a:	6043      	str	r3, [r0, #4]
    450c:	23fa      	movs	r3, #250	; 0xfa
    450e:	009b      	lsls	r3, r3, #2
    4510:	6083      	str	r3, [r0, #8]
    4512:	4b12      	ldr	r3, [pc, #72]	; (455c <_ZN4UartC1EP6SERCOMhh11SercomRXPad15SercomUartTXPadhh+0x78>)
    4514:	3308      	adds	r3, #8
    4516:	6003      	str	r3, [r0, #0]
    4518:	3014      	adds	r0, #20
    451a:	f7ff ffd5 	bl	44c8 <_ZN11RingBufferNILi256EEC1Ev>
    451e:	0020      	movs	r0, r4
    4520:	301d      	adds	r0, #29
    4522:	30ff      	adds	r0, #255	; 0xff
    4524:	f7ff ffd0 	bl	44c8 <_ZN11RingBufferNILi256EEC1Ev>
    4528:	2389      	movs	r3, #137	; 0x89
    452a:	466a      	mov	r2, sp
    452c:	009b      	lsls	r3, r3, #2
    452e:	6127      	str	r7, [r4, #16]
    4530:	54e6      	strb	r6, [r4, r3]
    4532:	4b0b      	ldr	r3, [pc, #44]	; (4560 <_ZN4UartC1EP6SERCOMhh11SercomRXPad15SercomUartTXPadhh+0x7c>)
    4534:	7812      	ldrb	r2, [r2, #0]
    4536:	54e5      	strb	r5, [r4, r3]
    4538:	4b0a      	ldr	r3, [pc, #40]	; (4564 <_ZN4UartC1EP6SERCOMhh11SercomRXPad15SercomUartTXPadhh+0x80>)
    453a:	0020      	movs	r0, r4
    453c:	54e2      	strb	r2, [r4, r3]
    453e:	466a      	mov	r2, sp
    4540:	4b09      	ldr	r3, [pc, #36]	; (4568 <_ZN4UartC1EP6SERCOMhh11SercomRXPad15SercomUartTXPadhh+0x84>)
    4542:	7912      	ldrb	r2, [r2, #4]
    4544:	54e2      	strb	r2, [r4, r3]
    4546:	466a      	mov	r2, sp
    4548:	7a12      	ldrb	r2, [r2, #8]
    454a:	3301      	adds	r3, #1
    454c:	54e2      	strb	r2, [r4, r3]
    454e:	466a      	mov	r2, sp
    4550:	7b12      	ldrb	r2, [r2, #12]
    4552:	3310      	adds	r3, #16
    4554:	54e2      	strb	r2, [r4, r3]
    4556:	b005      	add	sp, #20
    4558:	bdf0      	pop	{r4, r5, r6, r7, pc}
    455a:	46c0      	nop			; (mov r8, r8)
    455c:	00004fc4 	.word	0x00004fc4
    4560:	00000225 	.word	0x00000225
    4564:	00000226 	.word	0x00000226
    4568:	00000227 	.word	0x00000227

0000456c <_ZN4UartC1EP6SERCOMhh11SercomRXPad15SercomUartTXPad>:
    456c:	b5f7      	push	{r0, r1, r2, r4, r5, r6, r7, lr}
    456e:	001d      	movs	r5, r3
    4570:	ab08      	add	r3, sp, #32
    4572:	781b      	ldrb	r3, [r3, #0]
    4574:	0004      	movs	r4, r0
    4576:	9300      	str	r3, [sp, #0]
    4578:	ab09      	add	r3, sp, #36	; 0x24
    457a:	781b      	ldrb	r3, [r3, #0]
    457c:	0016      	movs	r6, r2
    457e:	9301      	str	r3, [sp, #4]
    4580:	2300      	movs	r3, #0
    4582:	6043      	str	r3, [r0, #4]
    4584:	23fa      	movs	r3, #250	; 0xfa
    4586:	009b      	lsls	r3, r3, #2
    4588:	6083      	str	r3, [r0, #8]
    458a:	4b11      	ldr	r3, [pc, #68]	; (45d0 <_ZN4UartC1EP6SERCOMhh11SercomRXPad15SercomUartTXPad+0x64>)
    458c:	000f      	movs	r7, r1
    458e:	3308      	adds	r3, #8
    4590:	6003      	str	r3, [r0, #0]
    4592:	3014      	adds	r0, #20
    4594:	f7ff ff98 	bl	44c8 <_ZN11RingBufferNILi256EEC1Ev>
    4598:	0020      	movs	r0, r4
    459a:	301d      	adds	r0, #29
    459c:	30ff      	adds	r0, #255	; 0xff
    459e:	f7ff ff93 	bl	44c8 <_ZN11RingBufferNILi256EEC1Ev>
    45a2:	2389      	movs	r3, #137	; 0x89
    45a4:	466a      	mov	r2, sp
    45a6:	009b      	lsls	r3, r3, #2
    45a8:	6127      	str	r7, [r4, #16]
    45aa:	54e6      	strb	r6, [r4, r3]
    45ac:	4b09      	ldr	r3, [pc, #36]	; (45d4 <_ZN4UartC1EP6SERCOMhh11SercomRXPad15SercomUartTXPad+0x68>)
    45ae:	7812      	ldrb	r2, [r2, #0]
    45b0:	54e5      	strb	r5, [r4, r3]
    45b2:	4b09      	ldr	r3, [pc, #36]	; (45d8 <_ZN4UartC1EP6SERCOMhh11SercomRXPad15SercomUartTXPad+0x6c>)
    45b4:	0020      	movs	r0, r4
    45b6:	54e2      	strb	r2, [r4, r3]
    45b8:	466a      	mov	r2, sp
    45ba:	4b08      	ldr	r3, [pc, #32]	; (45dc <_ZN4UartC1EP6SERCOMhh11SercomRXPad15SercomUartTXPad+0x70>)
    45bc:	7912      	ldrb	r2, [r2, #4]
    45be:	54e2      	strb	r2, [r4, r3]
    45c0:	228a      	movs	r2, #138	; 0x8a
    45c2:	3b29      	subs	r3, #41	; 0x29
    45c4:	3bff      	subs	r3, #255	; 0xff
    45c6:	0092      	lsls	r2, r2, #2
    45c8:	54a3      	strb	r3, [r4, r2]
    45ca:	3210      	adds	r2, #16
    45cc:	54a3      	strb	r3, [r4, r2]
    45ce:	bdfe      	pop	{r1, r2, r3, r4, r5, r6, r7, pc}
    45d0:	00004fc4 	.word	0x00004fc4
    45d4:	00000225 	.word	0x00000225
    45d8:	00000226 	.word	0x00000226
    45dc:	00000227 	.word	0x00000227

000045e0 <_ZN11RingBufferNILi256EE9availableEv>:
    45e0:	0003      	movs	r3, r0
    45e2:	33fc      	adds	r3, #252	; 0xfc
    45e4:	6858      	ldr	r0, [r3, #4]
    45e6:	689b      	ldr	r3, [r3, #8]
    45e8:	1ac0      	subs	r0, r0, r3
    45ea:	d501      	bpl.n	45f0 <_ZN11RingBufferNILi256EE9availableEv+0x10>
    45ec:	3001      	adds	r0, #1
    45ee:	30ff      	adds	r0, #255	; 0xff
    45f0:	4770      	bx	lr

000045f2 <_ZN4Uart5flushEv>:
    45f2:	b510      	push	{r4, lr}
    45f4:	0004      	movs	r4, r0
    45f6:	0020      	movs	r0, r4
    45f8:	301d      	adds	r0, #29
    45fa:	30ff      	adds	r0, #255	; 0xff
    45fc:	f7ff fff0 	bl	45e0 <_ZN11RingBufferNILi256EE9availableEv>
    4600:	2800      	cmp	r0, #0
    4602:	d1f8      	bne.n	45f6 <_ZN4Uart5flushEv+0x4>
    4604:	6920      	ldr	r0, [r4, #16]
    4606:	f7ff fdd0 	bl	41aa <_ZN6SERCOM9flushUARTEv>
    460a:	bd10      	pop	{r4, pc}

0000460c <_ZN4Uart9availableEv>:
    460c:	b510      	push	{r4, lr}
    460e:	3014      	adds	r0, #20
    4610:	f7ff ffe6 	bl	45e0 <_ZN11RingBufferNILi256EE9availableEv>
    4614:	bd10      	pop	{r4, pc}

00004616 <_ZN11RingBufferNILi256EE17availableForStoreEv>:
    4616:	0003      	movs	r3, r0
    4618:	33fc      	adds	r3, #252	; 0xfc
    461a:	6859      	ldr	r1, [r3, #4]
    461c:	689a      	ldr	r2, [r3, #8]
    461e:	4291      	cmp	r1, r2
    4620:	db04      	blt.n	462c <_ZN11RingBufferNILi256EE17availableForStoreEv+0x16>
    4622:	685a      	ldr	r2, [r3, #4]
    4624:	6898      	ldr	r0, [r3, #8]
    4626:	1a80      	subs	r0, r0, r2
    4628:	30ff      	adds	r0, #255	; 0xff
    462a:	4770      	bx	lr
    462c:	6898      	ldr	r0, [r3, #8]
    462e:	685b      	ldr	r3, [r3, #4]
    4630:	1ac0      	subs	r0, r0, r3
    4632:	3801      	subs	r0, #1
    4634:	e7f9      	b.n	462a <_ZN11RingBufferNILi256EE17availableForStoreEv+0x14>

00004636 <_ZN4Uart17availableForWriteEv>:
    4636:	b510      	push	{r4, lr}
    4638:	301d      	adds	r0, #29
    463a:	30ff      	adds	r0, #255	; 0xff
    463c:	f7ff ffeb 	bl	4616 <_ZN11RingBufferNILi256EE17availableForStoreEv>
    4640:	bd10      	pop	{r4, pc}

00004642 <_ZN4Uart10IrqHandlerEv>:
    4642:	b510      	push	{r4, lr}
    4644:	0004      	movs	r4, r0
    4646:	6900      	ldr	r0, [r0, #16]
    4648:	f7ff fdcb 	bl	41e2 <_ZN6SERCOM16isFrameErrorUARTEv>
    464c:	2800      	cmp	r0, #0
    464e:	d005      	beq.n	465c <_ZN4Uart10IrqHandlerEv+0x1a>
    4650:	6920      	ldr	r0, [r4, #16]
    4652:	f7ff fdd6 	bl	4202 <_ZN6SERCOM12readDataUARTEv>
    4656:	6920      	ldr	r0, [r4, #16]
    4658:	f7ff fdc8 	bl	41ec <_ZN6SERCOM19clearFrameErrorUARTEv>
    465c:	6920      	ldr	r0, [r4, #16]
    465e:	f7ff fdb0 	bl	41c2 <_ZN6SERCOM17availableDataUARTEv>
    4662:	2800      	cmp	r0, #0
    4664:	d020      	beq.n	46a8 <_ZN4Uart10IrqHandlerEv+0x66>
    4666:	6920      	ldr	r0, [r4, #16]
    4668:	f7ff fdcb 	bl	4202 <_ZN6SERCOM12readDataUARTEv>
    466c:	0022      	movs	r2, r4
    466e:	32fc      	adds	r2, #252	; 0xfc
    4670:	6993      	ldr	r3, [r2, #24]
    4672:	69d1      	ldr	r1, [r2, #28]
    4674:	3301      	adds	r3, #1
    4676:	b2db      	uxtb	r3, r3
    4678:	428b      	cmp	r3, r1
    467a:	d003      	beq.n	4684 <_ZN4Uart10IrqHandlerEv+0x42>
    467c:	6991      	ldr	r1, [r2, #24]
    467e:	1861      	adds	r1, r4, r1
    4680:	7508      	strb	r0, [r1, #20]
    4682:	6193      	str	r3, [r2, #24]
    4684:	238a      	movs	r3, #138	; 0x8a
    4686:	009b      	lsls	r3, r3, #2
    4688:	5ce3      	ldrb	r3, [r4, r3]
    468a:	2bff      	cmp	r3, #255	; 0xff
    468c:	d00c      	beq.n	46a8 <_ZN4Uart10IrqHandlerEv+0x66>
    468e:	0020      	movs	r0, r4
    4690:	3014      	adds	r0, #20
    4692:	f7ff ffc0 	bl	4616 <_ZN11RingBufferNILi256EE17availableForStoreEv>
    4696:	2809      	cmp	r0, #9
    4698:	dc06      	bgt.n	46a8 <_ZN4Uart10IrqHandlerEv+0x66>
    469a:	238b      	movs	r3, #139	; 0x8b
    469c:	228d      	movs	r2, #141	; 0x8d
    469e:	009b      	lsls	r3, r3, #2
    46a0:	0092      	lsls	r2, r2, #2
    46a2:	58e3      	ldr	r3, [r4, r3]
    46a4:	58a2      	ldr	r2, [r4, r2]
    46a6:	601a      	str	r2, [r3, #0]
    46a8:	6920      	ldr	r0, [r4, #16]
    46aa:	f7ff fda5 	bl	41f8 <_ZN6SERCOM23isDataRegisterEmptyUARTEv>
    46ae:	2800      	cmp	r0, #0
    46b0:	d01a      	beq.n	46e8 <_ZN4Uart10IrqHandlerEv+0xa6>
    46b2:	0020      	movs	r0, r4
    46b4:	301d      	adds	r0, #29
    46b6:	30ff      	adds	r0, #255	; 0xff
    46b8:	f7ff ff92 	bl	45e0 <_ZN11RingBufferNILi256EE9availableEv>
    46bc:	2800      	cmp	r0, #0
    46be:	d022      	beq.n	4706 <_ZN4Uart10IrqHandlerEv+0xc4>
    46c0:	2386      	movs	r3, #134	; 0x86
    46c2:	009b      	lsls	r3, r3, #2
    46c4:	18e3      	adds	r3, r4, r3
    46c6:	6899      	ldr	r1, [r3, #8]
    46c8:	685a      	ldr	r2, [r3, #4]
    46ca:	4291      	cmp	r1, r2
    46cc:	d018      	beq.n	4700 <_ZN4Uart10IrqHandlerEv+0xbe>
    46ce:	218e      	movs	r1, #142	; 0x8e
    46d0:	689a      	ldr	r2, [r3, #8]
    46d2:	0049      	lsls	r1, r1, #1
    46d4:	18a2      	adds	r2, r4, r2
    46d6:	5c51      	ldrb	r1, [r2, r1]
    46d8:	689a      	ldr	r2, [r3, #8]
    46da:	3201      	adds	r2, #1
    46dc:	b2d2      	uxtb	r2, r2
    46de:	609a      	str	r2, [r3, #8]
    46e0:	b2c9      	uxtb	r1, r1
    46e2:	6920      	ldr	r0, [r4, #16]
    46e4:	f7ff fd91 	bl	420a <_ZN6SERCOM13writeDataUARTEh>
    46e8:	6920      	ldr	r0, [r4, #16]
    46ea:	f7ff fd6f 	bl	41cc <_ZN6SERCOM11isUARTErrorEv>
    46ee:	2800      	cmp	r0, #0
    46f0:	d005      	beq.n	46fe <_ZN4Uart10IrqHandlerEv+0xbc>
    46f2:	6920      	ldr	r0, [r4, #16]
    46f4:	f7ff fd6e 	bl	41d4 <_ZN6SERCOM20acknowledgeUARTErrorEv>
    46f8:	6920      	ldr	r0, [r4, #16]
    46fa:	f7ff fd5e 	bl	41ba <_ZN6SERCOM15clearStatusUARTEv>
    46fe:	bd10      	pop	{r4, pc}
    4700:	2101      	movs	r1, #1
    4702:	4249      	negs	r1, r1
    4704:	e7ec      	b.n	46e0 <_ZN4Uart10IrqHandlerEv+0x9e>
    4706:	6920      	ldr	r0, [r4, #16]
    4708:	f7ff fd8b 	bl	4222 <_ZN6SERCOM37disableDataRegisterEmptyInterruptUARTEv>
    470c:	e7ec      	b.n	46e8 <_ZN4Uart10IrqHandlerEv+0xa6>
	...

00004710 <_ZN4Uart5writeEh>:
    4710:	b570      	push	{r4, r5, r6, lr}
    4712:	0004      	movs	r4, r0
    4714:	6900      	ldr	r0, [r0, #16]
    4716:	000d      	movs	r5, r1
    4718:	f7ff fd6e 	bl	41f8 <_ZN6SERCOM23isDataRegisterEmptyUARTEv>
    471c:	2800      	cmp	r0, #0
    471e:	d124      	bne.n	476a <_ZN4Uart5writeEh+0x5a>
    4720:	26ff      	movs	r6, #255	; 0xff
    4722:	2386      	movs	r3, #134	; 0x86
    4724:	009b      	lsls	r3, r3, #2
    4726:	18e3      	adds	r3, r4, r3
    4728:	685a      	ldr	r2, [r3, #4]
    472a:	6899      	ldr	r1, [r3, #8]
    472c:	3201      	adds	r2, #1
    472e:	4032      	ands	r2, r6
    4730:	428a      	cmp	r2, r1
    4732:	d12f      	bne.n	4794 <_ZN4Uart5writeEh+0x84>
  __ASM volatile ("MRS %0, primask" : "=r" (result) :: "memory");
    4734:	f3ef 8310 	mrs	r3, PRIMASK
    4738:	07db      	lsls	r3, r3, #31
    473a:	d40d      	bmi.n	4758 <_ZN4Uart5writeEh+0x48>
    473c:	4b1e      	ldr	r3, [pc, #120]	; (47b8 <_ZN4Uart5writeEh+0xa8>)
    473e:	685b      	ldr	r3, [r3, #4]
    4740:	05db      	lsls	r3, r3, #23
    4742:	0ddb      	lsrs	r3, r3, #23
    4744:	d0ed      	beq.n	4722 <_ZN4Uart5writeEh+0x12>
    4746:	3b10      	subs	r3, #16
    4748:	b25b      	sxtb	r3, r3
  if ((int32_t)(IRQn) >= 0)
    474a:	2b00      	cmp	r3, #0
    474c:	db19      	blt.n	4782 <_ZN4Uart5writeEh+0x72>
    return((uint32_t)(((NVIC->IP[ _IP_IDX(IRQn)] >> _BIT_SHIFT(IRQn) ) & (uint32_t)0xFFUL) >> (8U - __NVIC_PRIO_BITS)));
    474e:	089b      	lsrs	r3, r3, #2
    4750:	33c0      	adds	r3, #192	; 0xc0
    4752:	4a1a      	ldr	r2, [pc, #104]	; (47bc <_ZN4Uart5writeEh+0xac>)
    4754:	009b      	lsls	r3, r3, #2
    4756:	589b      	ldr	r3, [r3, r2]
    4758:	6920      	ldr	r0, [r4, #16]
    475a:	f7ff fd4d 	bl	41f8 <_ZN6SERCOM23isDataRegisterEmptyUARTEv>
    475e:	2800      	cmp	r0, #0
    4760:	d0df      	beq.n	4722 <_ZN4Uart5writeEh+0x12>
    4762:	0020      	movs	r0, r4
    4764:	f7ff ff6d 	bl	4642 <_ZN4Uart10IrqHandlerEv>
    4768:	e7db      	b.n	4722 <_ZN4Uart5writeEh+0x12>
    476a:	0020      	movs	r0, r4
    476c:	301d      	adds	r0, #29
    476e:	30ff      	adds	r0, #255	; 0xff
    4770:	f7ff ff36 	bl	45e0 <_ZN11RingBufferNILi256EE9availableEv>
    4774:	2800      	cmp	r0, #0
    4776:	d1d3      	bne.n	4720 <_ZN4Uart5writeEh+0x10>
    4778:	0029      	movs	r1, r5
    477a:	6920      	ldr	r0, [r4, #16]
    477c:	f7ff fd45 	bl	420a <_ZN6SERCOM13writeDataUARTEh>
    4780:	e017      	b.n	47b2 <_ZN4Uart5writeEh+0xa2>
    return((uint32_t)(((SCB->SHP[_SHP_IDX(IRQn)] >> _BIT_SHIFT(IRQn) ) & (uint32_t)0xFFUL) >> (8U - __NVIC_PRIO_BITS)));
    4782:	220f      	movs	r2, #15
    4784:	4013      	ands	r3, r2
    4786:	3b08      	subs	r3, #8
    4788:	089b      	lsrs	r3, r3, #2
    478a:	4a0d      	ldr	r2, [pc, #52]	; (47c0 <_ZN4Uart5writeEh+0xb0>)
    478c:	009b      	lsls	r3, r3, #2
    478e:	189b      	adds	r3, r3, r2
    4790:	681b      	ldr	r3, [r3, #0]
    4792:	e7e1      	b.n	4758 <_ZN4Uart5writeEh+0x48>
    4794:	685a      	ldr	r2, [r3, #4]
    4796:	3201      	adds	r2, #1
    4798:	4016      	ands	r6, r2
    479a:	689a      	ldr	r2, [r3, #8]
    479c:	4296      	cmp	r6, r2
    479e:	d005      	beq.n	47ac <_ZN4Uart5writeEh+0x9c>
    47a0:	218e      	movs	r1, #142	; 0x8e
    47a2:	685a      	ldr	r2, [r3, #4]
    47a4:	0049      	lsls	r1, r1, #1
    47a6:	18a2      	adds	r2, r4, r2
    47a8:	5455      	strb	r5, [r2, r1]
    47aa:	605e      	str	r6, [r3, #4]
    47ac:	6920      	ldr	r0, [r4, #16]
    47ae:	f7ff fd34 	bl	421a <_ZN6SERCOM36enableDataRegisterEmptyInterruptUARTEv>
    47b2:	2001      	movs	r0, #1
    47b4:	bd70      	pop	{r4, r5, r6, pc}
    47b6:	46c0      	nop			; (mov r8, r8)
    47b8:	e000ed00 	.word	0xe000ed00
    47bc:	e000e100 	.word	0xe000e100
    47c0:	e000ed1c 	.word	0xe000ed1c

000047c4 <_ZN4Uart4readEv>:
    47c4:	0003      	movs	r3, r0
    47c6:	33fc      	adds	r3, #252	; 0xfc
    47c8:	69d9      	ldr	r1, [r3, #28]
    47ca:	699a      	ldr	r2, [r3, #24]
    47cc:	b570      	push	{r4, r5, r6, lr}
    47ce:	0004      	movs	r4, r0
    47d0:	4291      	cmp	r1, r2
    47d2:	d01a      	beq.n	480a <_ZN4Uart4readEv+0x46>
    47d4:	69da      	ldr	r2, [r3, #28]
    47d6:	1882      	adds	r2, r0, r2
    47d8:	7d15      	ldrb	r5, [r2, #20]
    47da:	69da      	ldr	r2, [r3, #28]
    47dc:	3201      	adds	r2, #1
    47de:	b2d2      	uxtb	r2, r2
    47e0:	61da      	str	r2, [r3, #28]
    47e2:	238a      	movs	r3, #138	; 0x8a
    47e4:	009b      	lsls	r3, r3, #2
    47e6:	5ce3      	ldrb	r3, [r4, r3]
    47e8:	2bff      	cmp	r3, #255	; 0xff
    47ea:	d00c      	beq.n	4806 <_ZN4Uart4readEv+0x42>
    47ec:	0020      	movs	r0, r4
    47ee:	3014      	adds	r0, #20
    47f0:	f7ff ff11 	bl	4616 <_ZN11RingBufferNILi256EE17availableForStoreEv>
    47f4:	280a      	cmp	r0, #10
    47f6:	dd06      	ble.n	4806 <_ZN4Uart4readEv+0x42>
    47f8:	238c      	movs	r3, #140	; 0x8c
    47fa:	228d      	movs	r2, #141	; 0x8d
    47fc:	009b      	lsls	r3, r3, #2
    47fe:	0092      	lsls	r2, r2, #2
    4800:	58e3      	ldr	r3, [r4, r3]
    4802:	58a2      	ldr	r2, [r4, r2]
    4804:	601a      	str	r2, [r3, #0]
    4806:	0028      	movs	r0, r5
    4808:	bd70      	pop	{r4, r5, r6, pc}
    480a:	2501      	movs	r5, #1
    480c:	426d      	negs	r5, r5
    480e:	e7e8      	b.n	47e2 <_ZN4Uart4readEv+0x1e>

00004810 <__gnu_thumb1_case_uqi>:
    4810:	b402      	push	{r1}
    4812:	4671      	mov	r1, lr
    4814:	0849      	lsrs	r1, r1, #1
    4816:	0049      	lsls	r1, r1, #1
    4818:	5c09      	ldrb	r1, [r1, r0]
    481a:	0049      	lsls	r1, r1, #1
    481c:	448e      	add	lr, r1
    481e:	bc02      	pop	{r1}
    4820:	4770      	bx	lr
    4822:	46c0      	nop			; (mov r8, r8)

00004824 <__udivsi3>:
    4824:	2200      	movs	r2, #0
    4826:	0843      	lsrs	r3, r0, #1
    4828:	428b      	cmp	r3, r1
    482a:	d374      	bcc.n	4916 <__udivsi3+0xf2>
    482c:	0903      	lsrs	r3, r0, #4
    482e:	428b      	cmp	r3, r1
    4830:	d35f      	bcc.n	48f2 <__udivsi3+0xce>
    4832:	0a03      	lsrs	r3, r0, #8
    4834:	428b      	cmp	r3, r1
    4836:	d344      	bcc.n	48c2 <__udivsi3+0x9e>
    4838:	0b03      	lsrs	r3, r0, #12
    483a:	428b      	cmp	r3, r1
    483c:	d328      	bcc.n	4890 <__udivsi3+0x6c>
    483e:	0c03      	lsrs	r3, r0, #16
    4840:	428b      	cmp	r3, r1
    4842:	d30d      	bcc.n	4860 <__udivsi3+0x3c>
    4844:	22ff      	movs	r2, #255	; 0xff
    4846:	0209      	lsls	r1, r1, #8
    4848:	ba12      	rev	r2, r2
    484a:	0c03      	lsrs	r3, r0, #16
    484c:	428b      	cmp	r3, r1
    484e:	d302      	bcc.n	4856 <__udivsi3+0x32>
    4850:	1212      	asrs	r2, r2, #8
    4852:	0209      	lsls	r1, r1, #8
    4854:	d065      	beq.n	4922 <__udivsi3+0xfe>
    4856:	0b03      	lsrs	r3, r0, #12
    4858:	428b      	cmp	r3, r1
    485a:	d319      	bcc.n	4890 <__udivsi3+0x6c>
    485c:	e000      	b.n	4860 <__udivsi3+0x3c>
    485e:	0a09      	lsrs	r1, r1, #8
    4860:	0bc3      	lsrs	r3, r0, #15
    4862:	428b      	cmp	r3, r1
    4864:	d301      	bcc.n	486a <__udivsi3+0x46>
    4866:	03cb      	lsls	r3, r1, #15
    4868:	1ac0      	subs	r0, r0, r3
    486a:	4152      	adcs	r2, r2
    486c:	0b83      	lsrs	r3, r0, #14
    486e:	428b      	cmp	r3, r1
    4870:	d301      	bcc.n	4876 <__udivsi3+0x52>
    4872:	038b      	lsls	r3, r1, #14
    4874:	1ac0      	subs	r0, r0, r3
    4876:	4152      	adcs	r2, r2
    4878:	0b43      	lsrs	r3, r0, #13
    487a:	428b      	cmp	r3, r1
    487c:	d301      	bcc.n	4882 <__udivsi3+0x5e>
    487e:	034b      	lsls	r3, r1, #13
    4880:	1ac0      	subs	r0, r0, r3
    4882:	4152      	adcs	r2, r2
    4884:	0b03      	lsrs	r3, r0, #12
    4886:	428b      	cmp	r3, r1
    4888:	d301      	bcc.n	488e <__udivsi3+0x6a>
    488a:	030b      	lsls	r3, r1, #12
    488c:	1ac0      	subs	r0, r0, r3
    488e:	4152      	adcs	r2, r2
    4890:	0ac3      	lsrs	r3, r0, #11
    4892:	428b      	cmp	r3, r1
    4894:	d301      	bcc.n	489a <__udivsi3+0x76>
    4896:	02cb      	lsls	r3, r1, #11
    4898:	1ac0      	subs	r0, r0, r3
    489a:	4152      	adcs	r2, r2
    489c:	0a83      	lsrs	r3, r0, #10
    489e:	428b      	cmp	r3, r1
    48a0:	d301      	bcc.n	48a6 <__udivsi3+0x82>
    48a2:	028b      	lsls	r3, r1, #10
    48a4:	1ac0      	subs	r0, r0, r3
    48a6:	4152      	adcs	r2, r2
    48a8:	0a43      	lsrs	r3, r0, #9
    48aa:	428b      	cmp	r3, r1
    48ac:	d301      	bcc.n	48b2 <__udivsi3+0x8e>
    48ae:	024b      	lsls	r3, r1, #9
    48b0:	1ac0      	subs	r0, r0, r3
    48b2:	4152      	adcs	r2, r2
    48b4:	0a03      	lsrs	r3, r0, #8
    48b6:	428b      	cmp	r3, r1
    48b8:	d301      	bcc.n	48be <__udivsi3+0x9a>
    48ba:	020b      	lsls	r3, r1, #8
    48bc:	1ac0      	subs	r0, r0, r3
    48be:	4152      	adcs	r2, r2
    48c0:	d2cd      	bcs.n	485e <__udivsi3+0x3a>
    48c2:	09c3      	lsrs	r3, r0, #7
    48c4:	428b      	cmp	r3, r1
    48c6:	d301      	bcc.n	48cc <__udivsi3+0xa8>
    48c8:	01cb      	lsls	r3, r1, #7
    48ca:	1ac0      	subs	r0, r0, r3
    48cc:	4152      	adcs	r2, r2
    48ce:	0983      	lsrs	r3, r0, #6
    48d0:	428b      	cmp	r3, r1
    48d2:	d301      	bcc.n	48d8 <__udivsi3+0xb4>
    48d4:	018b      	lsls	r3, r1, #6
    48d6:	1ac0      	subs	r0, r0, r3
    48d8:	4152      	adcs	r2, r2
    48da:	0943      	lsrs	r3, r0, #5
    48dc:	428b      	cmp	r3, r1
    48de:	d301      	bcc.n	48e4 <__udivsi3+0xc0>
    48e0:	014b      	lsls	r3, r1, #5
    48e2:	1ac0      	subs	r0, r0, r3
    48e4:	4152      	adcs	r2, r2
    48e6:	0903      	lsrs	r3, r0, #4
    48e8:	428b      	cmp	r3, r1
    48ea:	d301      	bcc.n	48f0 <__udivsi3+0xcc>
    48ec:	010b      	lsls	r3, r1, #4
    48ee:	1ac0      	subs	r0, r0, r3
    48f0:	4152      	adcs	r2, r2
    48f2:	08c3      	lsrs	r3, r0, #3
    48f4:	428b      	cmp	r3, r1
    48f6:	d301      	bcc.n	48fc <__udivsi3+0xd8>
    48f8:	00cb      	lsls	r3, r1, #3
    48fa:	1ac0      	subs	r0, r0, r3
    48fc:	4152      	adcs	r2, r2
    48fe:	0883      	lsrs	r3, r0, #2
    4900:	428b      	cmp	r3, r1
    4902:	d301      	bcc.n	4908 <__udivsi3+0xe4>
    4904:	008b      	lsls	r3, r1, #2
    4906:	1ac0      	subs	r0, r0, r3
    4908:	4152      	adcs	r2, r2
    490a:	0843      	lsrs	r3, r0, #1
    490c:	428b      	cmp	r3, r1
    490e:	d301      	bcc.n	4914 <__udivsi3+0xf0>
    4910:	004b      	lsls	r3, r1, #1
    4912:	1ac0      	subs	r0, r0, r3
    4914:	4152      	adcs	r2, r2
    4916:	1a41      	subs	r1, r0, r1
    4918:	d200      	bcs.n	491c <__udivsi3+0xf8>
    491a:	4601      	mov	r1, r0
    491c:	4152      	adcs	r2, r2
    491e:	4610      	mov	r0, r2
    4920:	4770      	bx	lr
    4922:	e7ff      	b.n	4924 <__udivsi3+0x100>
    4924:	b501      	push	{r0, lr}
    4926:	2000      	movs	r0, #0
    4928:	f000 f806 	bl	4938 <__aeabi_idiv0>
    492c:	bd02      	pop	{r1, pc}
    492e:	46c0      	nop			; (mov r8, r8)

00004930 <__aeabi_uidivmod>:
    4930:	2900      	cmp	r1, #0
    4932:	d0f7      	beq.n	4924 <__udivsi3+0x100>
    4934:	e776      	b.n	4824 <__udivsi3>
    4936:	4770      	bx	lr

00004938 <__aeabi_idiv0>:
    4938:	4770      	bx	lr
    493a:	46c0      	nop			; (mov r8, r8)

0000493c <__libc_init_array>:
    493c:	b570      	push	{r4, r5, r6, lr}
    493e:	2600      	movs	r6, #0
    4940:	4d0c      	ldr	r5, [pc, #48]	; (4974 <__libc_init_array+0x38>)
    4942:	4c0d      	ldr	r4, [pc, #52]	; (4978 <__libc_init_array+0x3c>)
    4944:	1b64      	subs	r4, r4, r5
    4946:	10a4      	asrs	r4, r4, #2
    4948:	42a6      	cmp	r6, r4
    494a:	d109      	bne.n	4960 <__libc_init_array+0x24>
    494c:	2600      	movs	r6, #0
    494e:	f000 f911 	bl	4b74 <_init>
    4952:	4d0a      	ldr	r5, [pc, #40]	; (497c <__libc_init_array+0x40>)
    4954:	4c0a      	ldr	r4, [pc, #40]	; (4980 <__libc_init_array+0x44>)
    4956:	1b64      	subs	r4, r4, r5
    4958:	10a4      	asrs	r4, r4, #2
    495a:	42a6      	cmp	r6, r4
    495c:	d105      	bne.n	496a <__libc_init_array+0x2e>
    495e:	bd70      	pop	{r4, r5, r6, pc}
    4960:	00b3      	lsls	r3, r6, #2
    4962:	58eb      	ldr	r3, [r5, r3]
    4964:	4798      	blx	r3
    4966:	3601      	adds	r6, #1
    4968:	e7ee      	b.n	4948 <__libc_init_array+0xc>
    496a:	00b3      	lsls	r3, r6, #2
    496c:	58eb      	ldr	r3, [r5, r3]
    496e:	4798      	blx	r3
    4970:	3601      	adds	r6, #1
    4972:	e7f2      	b.n	495a <__libc_init_array+0x1e>
    4974:	2000007c 	.word	0x2000007c
    4978:	2000007c 	.word	0x2000007c
    497c:	2000007c 	.word	0x2000007c
    4980:	20000090 	.word	0x20000090

00004984 <malloc>:
    4984:	b510      	push	{r4, lr}
    4986:	4b03      	ldr	r3, [pc, #12]	; (4994 <malloc+0x10>)
    4988:	0001      	movs	r1, r0
    498a:	6818      	ldr	r0, [r3, #0]
    498c:	f000 f86a 	bl	4a64 <_malloc_r>
    4990:	bd10      	pop	{r4, pc}
    4992:	46c0      	nop			; (mov r8, r8)
    4994:	20000018 	.word	0x20000018

00004998 <free>:
    4998:	b510      	push	{r4, lr}
    499a:	4b03      	ldr	r3, [pc, #12]	; (49a8 <free+0x10>)
    499c:	0001      	movs	r1, r0
    499e:	6818      	ldr	r0, [r3, #0]
    49a0:	f000 f816 	bl	49d0 <_free_r>
    49a4:	bd10      	pop	{r4, pc}
    49a6:	46c0      	nop			; (mov r8, r8)
    49a8:	20000018 	.word	0x20000018

000049ac <memcpy>:
    49ac:	2300      	movs	r3, #0
    49ae:	b510      	push	{r4, lr}
    49b0:	429a      	cmp	r2, r3
    49b2:	d100      	bne.n	49b6 <memcpy+0xa>
    49b4:	bd10      	pop	{r4, pc}
    49b6:	5ccc      	ldrb	r4, [r1, r3]
    49b8:	54c4      	strb	r4, [r0, r3]
    49ba:	3301      	adds	r3, #1
    49bc:	e7f8      	b.n	49b0 <memcpy+0x4>

000049be <memset>:
    49be:	0003      	movs	r3, r0
    49c0:	1882      	adds	r2, r0, r2
    49c2:	4293      	cmp	r3, r2
    49c4:	d100      	bne.n	49c8 <memset+0xa>
    49c6:	4770      	bx	lr
    49c8:	7019      	strb	r1, [r3, #0]
    49ca:	3301      	adds	r3, #1
    49cc:	e7f9      	b.n	49c2 <memset+0x4>
	...

000049d0 <_free_r>:
    49d0:	b570      	push	{r4, r5, r6, lr}
    49d2:	0005      	movs	r5, r0
    49d4:	2900      	cmp	r1, #0
    49d6:	d010      	beq.n	49fa <_free_r+0x2a>
    49d8:	1f0c      	subs	r4, r1, #4
    49da:	6823      	ldr	r3, [r4, #0]
    49dc:	2b00      	cmp	r3, #0
    49de:	da00      	bge.n	49e2 <_free_r+0x12>
    49e0:	18e4      	adds	r4, r4, r3
    49e2:	0028      	movs	r0, r5
    49e4:	f000 f8b5 	bl	4b52 <__malloc_lock>
    49e8:	4a1d      	ldr	r2, [pc, #116]	; (4a60 <_free_r+0x90>)
    49ea:	6813      	ldr	r3, [r2, #0]
    49ec:	2b00      	cmp	r3, #0
    49ee:	d105      	bne.n	49fc <_free_r+0x2c>
    49f0:	6063      	str	r3, [r4, #4]
    49f2:	6014      	str	r4, [r2, #0]
    49f4:	0028      	movs	r0, r5
    49f6:	f000 f8ad 	bl	4b54 <__malloc_unlock>
    49fa:	bd70      	pop	{r4, r5, r6, pc}
    49fc:	42a3      	cmp	r3, r4
    49fe:	d909      	bls.n	4a14 <_free_r+0x44>
    4a00:	6821      	ldr	r1, [r4, #0]
    4a02:	1860      	adds	r0, r4, r1
    4a04:	4283      	cmp	r3, r0
    4a06:	d1f3      	bne.n	49f0 <_free_r+0x20>
    4a08:	6818      	ldr	r0, [r3, #0]
    4a0a:	685b      	ldr	r3, [r3, #4]
    4a0c:	1841      	adds	r1, r0, r1
    4a0e:	6021      	str	r1, [r4, #0]
    4a10:	e7ee      	b.n	49f0 <_free_r+0x20>
    4a12:	0013      	movs	r3, r2
    4a14:	685a      	ldr	r2, [r3, #4]
    4a16:	2a00      	cmp	r2, #0
    4a18:	d001      	beq.n	4a1e <_free_r+0x4e>
    4a1a:	42a2      	cmp	r2, r4
    4a1c:	d9f9      	bls.n	4a12 <_free_r+0x42>
    4a1e:	6819      	ldr	r1, [r3, #0]
    4a20:	1858      	adds	r0, r3, r1
    4a22:	42a0      	cmp	r0, r4
    4a24:	d10b      	bne.n	4a3e <_free_r+0x6e>
    4a26:	6820      	ldr	r0, [r4, #0]
    4a28:	1809      	adds	r1, r1, r0
    4a2a:	1858      	adds	r0, r3, r1
    4a2c:	6019      	str	r1, [r3, #0]
    4a2e:	4282      	cmp	r2, r0
    4a30:	d1e0      	bne.n	49f4 <_free_r+0x24>
    4a32:	6810      	ldr	r0, [r2, #0]
    4a34:	6852      	ldr	r2, [r2, #4]
    4a36:	1841      	adds	r1, r0, r1
    4a38:	6019      	str	r1, [r3, #0]
    4a3a:	605a      	str	r2, [r3, #4]
    4a3c:	e7da      	b.n	49f4 <_free_r+0x24>
    4a3e:	42a0      	cmp	r0, r4
    4a40:	d902      	bls.n	4a48 <_free_r+0x78>
    4a42:	230c      	movs	r3, #12
    4a44:	602b      	str	r3, [r5, #0]
    4a46:	e7d5      	b.n	49f4 <_free_r+0x24>
    4a48:	6821      	ldr	r1, [r4, #0]
    4a4a:	1860      	adds	r0, r4, r1
    4a4c:	4282      	cmp	r2, r0
    4a4e:	d103      	bne.n	4a58 <_free_r+0x88>
    4a50:	6810      	ldr	r0, [r2, #0]
    4a52:	6852      	ldr	r2, [r2, #4]
    4a54:	1841      	adds	r1, r0, r1
    4a56:	6021      	str	r1, [r4, #0]
    4a58:	6062      	str	r2, [r4, #4]
    4a5a:	605c      	str	r4, [r3, #4]
    4a5c:	e7ca      	b.n	49f4 <_free_r+0x24>
    4a5e:	46c0      	nop			; (mov r8, r8)
    4a60:	200013b8 	.word	0x200013b8

00004a64 <_malloc_r>:
    4a64:	2303      	movs	r3, #3
    4a66:	b570      	push	{r4, r5, r6, lr}
    4a68:	1ccd      	adds	r5, r1, #3
    4a6a:	439d      	bics	r5, r3
    4a6c:	3508      	adds	r5, #8
    4a6e:	0006      	movs	r6, r0
    4a70:	2d0c      	cmp	r5, #12
    4a72:	d21e      	bcs.n	4ab2 <_malloc_r+0x4e>
    4a74:	250c      	movs	r5, #12
    4a76:	42a9      	cmp	r1, r5
    4a78:	d81d      	bhi.n	4ab6 <_malloc_r+0x52>
    4a7a:	0030      	movs	r0, r6
    4a7c:	f000 f869 	bl	4b52 <__malloc_lock>
    4a80:	4a25      	ldr	r2, [pc, #148]	; (4b18 <_malloc_r+0xb4>)
    4a82:	6814      	ldr	r4, [r2, #0]
    4a84:	0021      	movs	r1, r4
    4a86:	2900      	cmp	r1, #0
    4a88:	d119      	bne.n	4abe <_malloc_r+0x5a>
    4a8a:	4c24      	ldr	r4, [pc, #144]	; (4b1c <_malloc_r+0xb8>)
    4a8c:	6823      	ldr	r3, [r4, #0]
    4a8e:	2b00      	cmp	r3, #0
    4a90:	d103      	bne.n	4a9a <_malloc_r+0x36>
    4a92:	0030      	movs	r0, r6
    4a94:	f000 f844 	bl	4b20 <_sbrk_r>
    4a98:	6020      	str	r0, [r4, #0]
    4a9a:	0029      	movs	r1, r5
    4a9c:	0030      	movs	r0, r6
    4a9e:	f000 f83f 	bl	4b20 <_sbrk_r>
    4aa2:	1c43      	adds	r3, r0, #1
    4aa4:	d12c      	bne.n	4b00 <_malloc_r+0x9c>
    4aa6:	230c      	movs	r3, #12
    4aa8:	0030      	movs	r0, r6
    4aaa:	6033      	str	r3, [r6, #0]
    4aac:	f000 f852 	bl	4b54 <__malloc_unlock>
    4ab0:	e003      	b.n	4aba <_malloc_r+0x56>
    4ab2:	2d00      	cmp	r5, #0
    4ab4:	dadf      	bge.n	4a76 <_malloc_r+0x12>
    4ab6:	230c      	movs	r3, #12
    4ab8:	6033      	str	r3, [r6, #0]
    4aba:	2000      	movs	r0, #0
    4abc:	bd70      	pop	{r4, r5, r6, pc}
    4abe:	680b      	ldr	r3, [r1, #0]
    4ac0:	1b5b      	subs	r3, r3, r5
    4ac2:	d41a      	bmi.n	4afa <_malloc_r+0x96>
    4ac4:	2b0b      	cmp	r3, #11
    4ac6:	d903      	bls.n	4ad0 <_malloc_r+0x6c>
    4ac8:	600b      	str	r3, [r1, #0]
    4aca:	18cc      	adds	r4, r1, r3
    4acc:	6025      	str	r5, [r4, #0]
    4ace:	e003      	b.n	4ad8 <_malloc_r+0x74>
    4ad0:	428c      	cmp	r4, r1
    4ad2:	d10e      	bne.n	4af2 <_malloc_r+0x8e>
    4ad4:	6863      	ldr	r3, [r4, #4]
    4ad6:	6013      	str	r3, [r2, #0]
    4ad8:	0030      	movs	r0, r6
    4ada:	f000 f83b 	bl	4b54 <__malloc_unlock>
    4ade:	0020      	movs	r0, r4
    4ae0:	2207      	movs	r2, #7
    4ae2:	300b      	adds	r0, #11
    4ae4:	1d23      	adds	r3, r4, #4
    4ae6:	4390      	bics	r0, r2
    4ae8:	1ac3      	subs	r3, r0, r3
    4aea:	d0e7      	beq.n	4abc <_malloc_r+0x58>
    4aec:	425a      	negs	r2, r3
    4aee:	50e2      	str	r2, [r4, r3]
    4af0:	e7e4      	b.n	4abc <_malloc_r+0x58>
    4af2:	684b      	ldr	r3, [r1, #4]
    4af4:	6063      	str	r3, [r4, #4]
    4af6:	000c      	movs	r4, r1
    4af8:	e7ee      	b.n	4ad8 <_malloc_r+0x74>
    4afa:	000c      	movs	r4, r1
    4afc:	6849      	ldr	r1, [r1, #4]
    4afe:	e7c2      	b.n	4a86 <_malloc_r+0x22>
    4b00:	2303      	movs	r3, #3
    4b02:	1cc4      	adds	r4, r0, #3
    4b04:	439c      	bics	r4, r3
    4b06:	42a0      	cmp	r0, r4
    4b08:	d0e0      	beq.n	4acc <_malloc_r+0x68>
    4b0a:	1a21      	subs	r1, r4, r0
    4b0c:	0030      	movs	r0, r6
    4b0e:	f000 f807 	bl	4b20 <_sbrk_r>
    4b12:	1c43      	adds	r3, r0, #1
    4b14:	d1da      	bne.n	4acc <_malloc_r+0x68>
    4b16:	e7c6      	b.n	4aa6 <_malloc_r+0x42>
    4b18:	200013b8 	.word	0x200013b8
    4b1c:	200013bc 	.word	0x200013bc

00004b20 <_sbrk_r>:
    4b20:	2300      	movs	r3, #0
    4b22:	b570      	push	{r4, r5, r6, lr}
    4b24:	4c06      	ldr	r4, [pc, #24]	; (4b40 <_sbrk_r+0x20>)
    4b26:	0005      	movs	r5, r0
    4b28:	0008      	movs	r0, r1
    4b2a:	6023      	str	r3, [r4, #0]
    4b2c:	f000 f814 	bl	4b58 <_sbrk>
    4b30:	1c43      	adds	r3, r0, #1
    4b32:	d103      	bne.n	4b3c <_sbrk_r+0x1c>
    4b34:	6823      	ldr	r3, [r4, #0]
    4b36:	2b00      	cmp	r3, #0
    4b38:	d000      	beq.n	4b3c <_sbrk_r+0x1c>
    4b3a:	602b      	str	r3, [r5, #0]
    4b3c:	bd70      	pop	{r4, r5, r6, pc}
    4b3e:	46c0      	nop			; (mov r8, r8)
    4b40:	200013c4 	.word	0x200013c4

00004b44 <strlen>:
    4b44:	2300      	movs	r3, #0
    4b46:	5cc2      	ldrb	r2, [r0, r3]
    4b48:	3301      	adds	r3, #1
    4b4a:	2a00      	cmp	r2, #0
    4b4c:	d1fb      	bne.n	4b46 <strlen+0x2>
    4b4e:	1e58      	subs	r0, r3, #1
    4b50:	4770      	bx	lr

00004b52 <__malloc_lock>:
    4b52:	4770      	bx	lr

00004b54 <__malloc_unlock>:
    4b54:	4770      	bx	lr
	...

00004b58 <_sbrk>:
    4b58:	4a04      	ldr	r2, [pc, #16]	; (4b6c <_sbrk+0x14>)
    4b5a:	6813      	ldr	r3, [r2, #0]
    4b5c:	2b00      	cmp	r3, #0
    4b5e:	d003      	beq.n	4b68 <_sbrk+0x10>
    4b60:	1818      	adds	r0, r3, r0
    4b62:	6010      	str	r0, [r2, #0]
    4b64:	0018      	movs	r0, r3
    4b66:	4770      	bx	lr
    4b68:	4b01      	ldr	r3, [pc, #4]	; (4b70 <_sbrk+0x18>)
    4b6a:	e7f9      	b.n	4b60 <_sbrk+0x8>
    4b6c:	200013c0 	.word	0x200013c0
    4b70:	200013c8 	.word	0x200013c8

00004b74 <_init>:
    4b74:	b5f8      	push	{r3, r4, r5, r6, r7, lr}
    4b76:	46c0      	nop			; (mov r8, r8)
    4b78:	bcf8      	pop	{r3, r4, r5, r6, r7}
    4b7a:	bc08      	pop	{r3}
    4b7c:	469e      	mov	lr, r3
    4b7e:	4770      	bx	lr

00004b80 <_fini>:
    4b80:	b5f8      	push	{r3, r4, r5, r6, r7, lr}
    4b82:	46c0      	nop			; (mov r8, r8)
    4b84:	bcf8      	pop	{r3, r4, r5, r6, r7}
    4b86:	bc08      	pop	{r3}
    4b88:	469e      	mov	lr, r3
    4b8a:	4770      	bx	lr

00004b8c <_ZTV7CDCIso_>:
	...
    4b94:	211f 0000 2129 0000 2123 0000 235d 0000     .!..)!..#!..]#..
    4ba4:	2115 0000 6574 7473 0000 0000               .!..test....

00004bb0 <_ZTV7Serial_>:
	...
    4bb8:	2955 0000 2b95 0000 2951 0000 2b79 0000     U)...+..Q)..y+..
    4bc8:	2b59 0000 2bd1 0000 2bb5 0000 2b87 0000     Y+...+...+...+..
    4bd8:	2969 0000 28b1 0000 2aa1 0000 28e9 0000     i)...(...*...(..
    4be8:	293d 0000 fff0 ffff 0000 0000 2b49 0000     =)..........I+..
    4bf8:	2a91 0000 28b5 0000 2941 0000 292d 0000     .*...(..A)..-)..

00004c08 <_ZTV26DoubleBufferedEPOutHandler>:
	...
    4c10:	2f49 0000 31ff 0000 31e7 0000 31c5 0000     I/...1...1...1..
    4c20:	2dad 0000 2daf 0000 2e9d 0000               .-...-......

00004c2c <_ZL14STRING_PRODUCT>:
    4c2c:	7241 7564 6e69 206f 4b4d 2052 6957 6946     Arduino MKR WiFi
    4c3c:	3120 3130 0030                               1010.

00004c42 <_ZL15STRING_LANGUAGE>:
    4c42:	0304 0409                                   ....

00004c46 <_ZL19STRING_MANUFACTURER>:
    4c46:	7241 7564 6e69 206f 4c4c 0043               Arduino LLC.

00004c52 <_ZL21USB_DeviceDescriptorB>:
    4c52:	0112 0200 02ef 4001 2341 8054 0100 0201     .......@A#T.....
    4c62:	0103                                        ..

00004c64 <g_APinDescription>:
    4c64:	0000 0000 0016 0000 0008 0000 001c 0000     ................
    4c74:	00ff 0400 0400 0006 0000 0000 0017 0000     ................
    4c84:	0008 0000 001c 0000 00ff 0401 0401 0007     ................
    4c94:	0000 0000 000a 0000 0008 0000 001c 0000     ................
    4ca4:	0012 0100 0100 00ff 0000 0000 000b 0000     ................
    4cb4:	0008 0000 001c 0000 0013 0101 0101 00ff     ................
    4cc4:	0001 0000 000a 0000 0008 0000 001c 0000     ................
    4cd4:	00ff 0500 0500 000a 0001 0000 000b 0000     ................
    4ce4:	0008 0000 001c 0000 00ff 0501 0501 000b     ................
    4cf4:	0000 0000 0014 0000 0008 0000 002c 0000     ............,...
    4d04:	00ff 0002 0002 0004 0000 0000 0015 0000     ................
    4d14:	0008 0000 002c 0000 00ff 0003 0003 0005     ....,...........
    4d24:	0000 0000 0010 0000 0002 0000 001c 0000     ................
    4d34:	00ff 0200 0200 0000 0000 0000 0011 0000     ................
    4d44:	0002 0000 0004 0000 00ff ffff ffff 0001     ................
    4d54:	0000 0000 0013 0000 0002 0000 001c 0000     ................
    4d64:	00ff 0301 0301 00ff 0000 0000 0008 0000     ................
    4d74:	0003 0000 0004 0000 0010 ffff ffff 0010     ................
    4d84:	0000 0000 0009 0000 0003 0000 0004 0000     ................
    4d94:	0011 ffff ffff 00ff 0001 0000 0017 0000     ................
    4da4:	0003 0000 0004 0000 00ff ffff ffff 00ff     ................
    4db4:	0001 0000 0016 0000 0003 0000 0004 0000     ................
    4dc4:	00ff ffff ffff 00ff 0000 0000 0002 0000     ................
    4dd4:	0001 0000 0006 0000 0000 ffff ffff 00ff     ................
    4de4:	0001 0000 0002 0000 0001 0000 0004 0000     ................
    4df4:	000a ffff ffff 0002 0001 0000 0003 0000     ................
    4e04:	0001 0000 0004 0000 000b ffff ffff 0003     ................
    4e14:	0000 0000 0004 0000 0001 0000 001c 0000     ................
    4e24:	0004 0000 0000 00ff 0000 0000 0005 0000     ................
    4e34:	0001 0000 001c 0000 0005 0001 0001 00ff     ................
    4e44:	0000 0000 0006 0000 0001 0000 0004 0000     ................
    4e54:	0006 ffff ffff 00ff 0000 0000 0007 0000     ................
    4e64:	0001 0000 0004 0000 0007 ffff ffff 00ff     ................
    4e74:	0000 0000 0018 0000 0006 0000 0000 0000     ................
    4e84:	00ff ffff ffff 00ff 0000 0000 0019 0000     ................
    4e94:	0006 0000 0000 0000 00ff ffff ffff 00ff     ................
    4ea4:	0000 0000 0012 0000 0008 0000 0004 0000     ................
    4eb4:	00ff ffff ffff 00ff 0000 0000 0003 0000     ................
    4ec4:	0008 0000 0004 0000 00ff ffff ffff 00ff     ................
    4ed4:	0000 0000 000c 0000 0003 0000 0000 0000     ................
    4ee4:	00ff ffff ffff 00ff 0000 0000 000d 0000     ................
    4ef4:	0003 0000 0000 0000 00ff ffff ffff 00ff     ................
    4f04:	0000 0000 000e 0000 0008 0000 0000 0000     ................
    4f14:	00ff ffff ffff 00ff 0000 0000 000f 0000     ................
    4f24:	0003 0000 0000 0000 00ff ffff ffff 00ff     ................
    4f34:	0000 0000 001b 0000 0008 0000 0000 0000     ................
    4f44:	00ff ffff ffff 000f 0001 0000 0008 0000     ................
    4f54:	0008 0000 0006 0000 0002 ffff ffff 00ff     ................
    4f64:	0001 0000 0009 0000 0001 0000 0018 0000     ................
    4f74:	0003 0401 0401 0009 0000 0000 0000 0000     ................
    4f84:	0008 0000 0000 0000 00ff ffff ffff 00ff     ................
    4f94:	0000 0000 0001 0000 0008 0000 0000 0000     ................
    4fa4:	00ff ffff ffff 00ff 0000 0000 001c 0000     ................
    4fb4:	0008 0000 0004 0000 00ff ffff ffff 00ff     ................

00004fc4 <_ZTV4Uart>:
	...
    4fcc:	4711 0000 2669 0000 4637 0000 45f3 0000     .G..i&..7F...E..
    4fdc:	460d 0000 47c5 0000 434d 0000 433d 0000     .F...G..MC..=C..
    4fec:	43d1 0000 4367 0000 4339 0000               .C..gC..9C..

00004ff8 <__EH_FRAME_BEGIN__>:
    4ff8:	0000 0000                                   ....
